ARM GAS  /var/folders/17/j_dgbcc52q10y0jc3c_zbwd80000gn/T//ccdhwDmV.s 			page 1


   1              		.cpu cortex-m7
   2              		.eabi_attribute 27, 1
   3              		.eabi_attribute 28, 1
   4              		.eabi_attribute 20, 1
   5              		.eabi_attribute 21, 1
   6              		.eabi_attribute 23, 3
   7              		.eabi_attribute 24, 1
   8              		.eabi_attribute 25, 1
   9              		.eabi_attribute 26, 1
  10              		.eabi_attribute 30, 1
  11              		.eabi_attribute 34, 1
  12              		.eabi_attribute 18, 4
  13              		.file	"stm32g4xx_ll_usb.c"
  14              		.text
  15              	.Ltext0:
  16              		.cfi_sections	.debug_frame
  17              		.section	.text.USB_CoreInit,"ax",%progbits
  18              		.align	1
  19              		.global	USB_CoreInit
  20              		.syntax unified
  21              		.thumb
  22              		.thumb_func
  23              		.fpu fpv5-sp-d16
  25              	USB_CoreInit:
  26              	.LFB130:
  27              		.file 1 "Drivers/STM32G4xx_HAL_Driver/Src/stm32g4xx_ll_usb.c"
   1:Drivers/STM32G4xx_HAL_Driver/Src/stm32g4xx_ll_usb.c **** /**
   2:Drivers/STM32G4xx_HAL_Driver/Src/stm32g4xx_ll_usb.c ****   ******************************************************************************
   3:Drivers/STM32G4xx_HAL_Driver/Src/stm32g4xx_ll_usb.c ****   * @file    stm32g4xx_ll_usb.c
   4:Drivers/STM32G4xx_HAL_Driver/Src/stm32g4xx_ll_usb.c ****   * @author  MCD Application Team
   5:Drivers/STM32G4xx_HAL_Driver/Src/stm32g4xx_ll_usb.c ****   * @brief   USB Low Layer HAL module driver.
   6:Drivers/STM32G4xx_HAL_Driver/Src/stm32g4xx_ll_usb.c ****   *
   7:Drivers/STM32G4xx_HAL_Driver/Src/stm32g4xx_ll_usb.c ****   *          This file provides firmware functions to manage the following
   8:Drivers/STM32G4xx_HAL_Driver/Src/stm32g4xx_ll_usb.c ****   *          functionalities of the USB Peripheral Controller:
   9:Drivers/STM32G4xx_HAL_Driver/Src/stm32g4xx_ll_usb.c ****   *           + Initialization/de-initialization functions
  10:Drivers/STM32G4xx_HAL_Driver/Src/stm32g4xx_ll_usb.c ****   *           + I/O operation functions
  11:Drivers/STM32G4xx_HAL_Driver/Src/stm32g4xx_ll_usb.c ****   *           + Peripheral Control functions
  12:Drivers/STM32G4xx_HAL_Driver/Src/stm32g4xx_ll_usb.c ****   *           + Peripheral State functions
  13:Drivers/STM32G4xx_HAL_Driver/Src/stm32g4xx_ll_usb.c ****   *
  14:Drivers/STM32G4xx_HAL_Driver/Src/stm32g4xx_ll_usb.c ****   @verbatim
  15:Drivers/STM32G4xx_HAL_Driver/Src/stm32g4xx_ll_usb.c ****   ==============================================================================
  16:Drivers/STM32G4xx_HAL_Driver/Src/stm32g4xx_ll_usb.c ****                     ##### How to use this driver #####
  17:Drivers/STM32G4xx_HAL_Driver/Src/stm32g4xx_ll_usb.c ****   ==============================================================================
  18:Drivers/STM32G4xx_HAL_Driver/Src/stm32g4xx_ll_usb.c ****     [..]
  19:Drivers/STM32G4xx_HAL_Driver/Src/stm32g4xx_ll_usb.c ****       (#) Fill parameters of Init structure in USB_OTG_CfgTypeDef structure.
  20:Drivers/STM32G4xx_HAL_Driver/Src/stm32g4xx_ll_usb.c **** 
  21:Drivers/STM32G4xx_HAL_Driver/Src/stm32g4xx_ll_usb.c ****       (#) Call USB_CoreInit() API to initialize the USB Core peripheral.
  22:Drivers/STM32G4xx_HAL_Driver/Src/stm32g4xx_ll_usb.c **** 
  23:Drivers/STM32G4xx_HAL_Driver/Src/stm32g4xx_ll_usb.c ****       (#) The upper HAL HCD/PCD driver will call the right routines for its internal processes.
  24:Drivers/STM32G4xx_HAL_Driver/Src/stm32g4xx_ll_usb.c **** 
  25:Drivers/STM32G4xx_HAL_Driver/Src/stm32g4xx_ll_usb.c ****   @endverbatim
  26:Drivers/STM32G4xx_HAL_Driver/Src/stm32g4xx_ll_usb.c ****   ******************************************************************************
  27:Drivers/STM32G4xx_HAL_Driver/Src/stm32g4xx_ll_usb.c ****   * @attention
  28:Drivers/STM32G4xx_HAL_Driver/Src/stm32g4xx_ll_usb.c ****   *
  29:Drivers/STM32G4xx_HAL_Driver/Src/stm32g4xx_ll_usb.c ****   * <h2><center>&copy; Copyright (c) 2019 STMicroelectronics.
  30:Drivers/STM32G4xx_HAL_Driver/Src/stm32g4xx_ll_usb.c ****   * All rights reserved.</center></h2>
  31:Drivers/STM32G4xx_HAL_Driver/Src/stm32g4xx_ll_usb.c ****   *
ARM GAS  /var/folders/17/j_dgbcc52q10y0jc3c_zbwd80000gn/T//ccdhwDmV.s 			page 2


  32:Drivers/STM32G4xx_HAL_Driver/Src/stm32g4xx_ll_usb.c ****   * This software component is licensed by ST under BSD 3-Clause license,
  33:Drivers/STM32G4xx_HAL_Driver/Src/stm32g4xx_ll_usb.c ****   * the "License"; You may not use this file except in compliance with the
  34:Drivers/STM32G4xx_HAL_Driver/Src/stm32g4xx_ll_usb.c ****   * License. You may obtain a copy of the License at:
  35:Drivers/STM32G4xx_HAL_Driver/Src/stm32g4xx_ll_usb.c ****   *                        opensource.org/licenses/BSD-3-Clause
  36:Drivers/STM32G4xx_HAL_Driver/Src/stm32g4xx_ll_usb.c ****   *
  37:Drivers/STM32G4xx_HAL_Driver/Src/stm32g4xx_ll_usb.c ****   ******************************************************************************
  38:Drivers/STM32G4xx_HAL_Driver/Src/stm32g4xx_ll_usb.c ****   */
  39:Drivers/STM32G4xx_HAL_Driver/Src/stm32g4xx_ll_usb.c **** 
  40:Drivers/STM32G4xx_HAL_Driver/Src/stm32g4xx_ll_usb.c **** /* Includes ------------------------------------------------------------------*/
  41:Drivers/STM32G4xx_HAL_Driver/Src/stm32g4xx_ll_usb.c **** #include "stm32g4xx_hal.h"
  42:Drivers/STM32G4xx_HAL_Driver/Src/stm32g4xx_ll_usb.c **** 
  43:Drivers/STM32G4xx_HAL_Driver/Src/stm32g4xx_ll_usb.c **** /** @addtogroup STM32G4xx_LL_USB_DRIVER
  44:Drivers/STM32G4xx_HAL_Driver/Src/stm32g4xx_ll_usb.c ****   * @{
  45:Drivers/STM32G4xx_HAL_Driver/Src/stm32g4xx_ll_usb.c ****   */
  46:Drivers/STM32G4xx_HAL_Driver/Src/stm32g4xx_ll_usb.c **** 
  47:Drivers/STM32G4xx_HAL_Driver/Src/stm32g4xx_ll_usb.c **** #if defined (HAL_PCD_MODULE_ENABLED) || defined (HAL_HCD_MODULE_ENABLED)
  48:Drivers/STM32G4xx_HAL_Driver/Src/stm32g4xx_ll_usb.c **** #if defined (USB)
  49:Drivers/STM32G4xx_HAL_Driver/Src/stm32g4xx_ll_usb.c **** /* Private typedef -----------------------------------------------------------*/
  50:Drivers/STM32G4xx_HAL_Driver/Src/stm32g4xx_ll_usb.c **** /* Private define ------------------------------------------------------------*/
  51:Drivers/STM32G4xx_HAL_Driver/Src/stm32g4xx_ll_usb.c **** /* Private macro -------------------------------------------------------------*/
  52:Drivers/STM32G4xx_HAL_Driver/Src/stm32g4xx_ll_usb.c **** /* Private variables ---------------------------------------------------------*/
  53:Drivers/STM32G4xx_HAL_Driver/Src/stm32g4xx_ll_usb.c **** /* Private function prototypes -----------------------------------------------*/
  54:Drivers/STM32G4xx_HAL_Driver/Src/stm32g4xx_ll_usb.c **** /* Private functions ---------------------------------------------------------*/
  55:Drivers/STM32G4xx_HAL_Driver/Src/stm32g4xx_ll_usb.c **** 
  56:Drivers/STM32G4xx_HAL_Driver/Src/stm32g4xx_ll_usb.c **** 
  57:Drivers/STM32G4xx_HAL_Driver/Src/stm32g4xx_ll_usb.c **** /**
  58:Drivers/STM32G4xx_HAL_Driver/Src/stm32g4xx_ll_usb.c ****   * @brief  Initializes the USB Core
  59:Drivers/STM32G4xx_HAL_Driver/Src/stm32g4xx_ll_usb.c ****   * @param  USBx: USB Instance
  60:Drivers/STM32G4xx_HAL_Driver/Src/stm32g4xx_ll_usb.c ****   * @param  cfg : pointer to a USB_CfgTypeDef structure that contains
  61:Drivers/STM32G4xx_HAL_Driver/Src/stm32g4xx_ll_usb.c ****   *         the configuration information for the specified USBx peripheral.
  62:Drivers/STM32G4xx_HAL_Driver/Src/stm32g4xx_ll_usb.c ****   * @retval HAL status
  63:Drivers/STM32G4xx_HAL_Driver/Src/stm32g4xx_ll_usb.c ****   */
  64:Drivers/STM32G4xx_HAL_Driver/Src/stm32g4xx_ll_usb.c **** HAL_StatusTypeDef USB_CoreInit(USB_TypeDef *USBx, USB_CfgTypeDef cfg)
  65:Drivers/STM32G4xx_HAL_Driver/Src/stm32g4xx_ll_usb.c **** {
  28              		.loc 1 65 0
  29              		.cfi_startproc
  30              		@ args = 36, pretend = 16, frame = 0
  31              		@ frame_needed = 0, uses_anonymous_args = 0
  32              		@ link register save eliminated.
  33              	.LVL0:
  34 0000 84B0     		sub	sp, sp, #16
  35              		.cfi_def_cfa_offset 16
  36 0002 01A8     		add	r0, sp, #4
  37              	.LVL1:
  38 0004 80E80E00 		stm	r0, {r1, r2, r3}
  66:Drivers/STM32G4xx_HAL_Driver/Src/stm32g4xx_ll_usb.c ****   /* Prevent unused argument(s) compilation warning */
  67:Drivers/STM32G4xx_HAL_Driver/Src/stm32g4xx_ll_usb.c ****   UNUSED(USBx);
  68:Drivers/STM32G4xx_HAL_Driver/Src/stm32g4xx_ll_usb.c ****   UNUSED(cfg);
  69:Drivers/STM32G4xx_HAL_Driver/Src/stm32g4xx_ll_usb.c **** 
  70:Drivers/STM32G4xx_HAL_Driver/Src/stm32g4xx_ll_usb.c ****   /* NOTE : - This function is not required by USB Device FS peripheral, it is used
  71:Drivers/STM32G4xx_HAL_Driver/Src/stm32g4xx_ll_usb.c ****               only by USB OTG FS peripheral.
  72:Drivers/STM32G4xx_HAL_Driver/Src/stm32g4xx_ll_usb.c ****             - This function is added to ensure compatibility across platforms.
  73:Drivers/STM32G4xx_HAL_Driver/Src/stm32g4xx_ll_usb.c ****    */
  74:Drivers/STM32G4xx_HAL_Driver/Src/stm32g4xx_ll_usb.c **** 
  75:Drivers/STM32G4xx_HAL_Driver/Src/stm32g4xx_ll_usb.c ****   return HAL_OK;
  76:Drivers/STM32G4xx_HAL_Driver/Src/stm32g4xx_ll_usb.c **** }
  39              		.loc 1 76 0
ARM GAS  /var/folders/17/j_dgbcc52q10y0jc3c_zbwd80000gn/T//ccdhwDmV.s 			page 3


  40 0008 0020     		movs	r0, #0
  41 000a 04B0     		add	sp, sp, #16
  42              		.cfi_def_cfa_offset 0
  43 000c 7047     		bx	lr
  44              		.cfi_endproc
  45              	.LFE130:
  47              		.section	.text.USB_EnableGlobalInt,"ax",%progbits
  48              		.align	1
  49              		.global	USB_EnableGlobalInt
  50              		.syntax unified
  51              		.thumb
  52              		.thumb_func
  53              		.fpu fpv5-sp-d16
  55              	USB_EnableGlobalInt:
  56              	.LFB131:
  77:Drivers/STM32G4xx_HAL_Driver/Src/stm32g4xx_ll_usb.c **** 
  78:Drivers/STM32G4xx_HAL_Driver/Src/stm32g4xx_ll_usb.c **** /**
  79:Drivers/STM32G4xx_HAL_Driver/Src/stm32g4xx_ll_usb.c ****   * @brief  USB_EnableGlobalInt
  80:Drivers/STM32G4xx_HAL_Driver/Src/stm32g4xx_ll_usb.c ****   *         Enables the controller's Global Int in the AHB Config reg
  81:Drivers/STM32G4xx_HAL_Driver/Src/stm32g4xx_ll_usb.c ****   * @param  USBx : Selected device
  82:Drivers/STM32G4xx_HAL_Driver/Src/stm32g4xx_ll_usb.c ****   * @retval HAL status
  83:Drivers/STM32G4xx_HAL_Driver/Src/stm32g4xx_ll_usb.c ****   */
  84:Drivers/STM32G4xx_HAL_Driver/Src/stm32g4xx_ll_usb.c **** HAL_StatusTypeDef USB_EnableGlobalInt(USB_TypeDef *USBx)
  85:Drivers/STM32G4xx_HAL_Driver/Src/stm32g4xx_ll_usb.c **** {
  57              		.loc 1 85 0
  58              		.cfi_startproc
  59              		@ args = 0, pretend = 0, frame = 0
  60              		@ frame_needed = 0, uses_anonymous_args = 0
  61              		@ link register save eliminated.
  62              	.LVL2:
  86:Drivers/STM32G4xx_HAL_Driver/Src/stm32g4xx_ll_usb.c ****   uint32_t winterruptmask;
  87:Drivers/STM32G4xx_HAL_Driver/Src/stm32g4xx_ll_usb.c **** 
  88:Drivers/STM32G4xx_HAL_Driver/Src/stm32g4xx_ll_usb.c ****   /* Set winterruptmask variable */
  89:Drivers/STM32G4xx_HAL_Driver/Src/stm32g4xx_ll_usb.c ****   winterruptmask = USB_CNTR_CTRM  | USB_CNTR_WKUPM |
  90:Drivers/STM32G4xx_HAL_Driver/Src/stm32g4xx_ll_usb.c ****                    USB_CNTR_SUSPM | USB_CNTR_ERRM |
  91:Drivers/STM32G4xx_HAL_Driver/Src/stm32g4xx_ll_usb.c ****                    USB_CNTR_SOFM | USB_CNTR_ESOFM |
  92:Drivers/STM32G4xx_HAL_Driver/Src/stm32g4xx_ll_usb.c ****                    USB_CNTR_RESETM | USB_CNTR_L1REQM;
  93:Drivers/STM32G4xx_HAL_Driver/Src/stm32g4xx_ll_usb.c **** 
  94:Drivers/STM32G4xx_HAL_Driver/Src/stm32g4xx_ll_usb.c ****   /* Set interrupt mask */
  95:Drivers/STM32G4xx_HAL_Driver/Src/stm32g4xx_ll_usb.c ****   USBx->CNTR |= (uint16_t)winterruptmask;
  63              		.loc 1 95 0
  64 0000 B0F84030 		ldrh	r3, [r0, #64]
  65 0004 43F43F43 		orr	r3, r3, #48896
  66 0008 43F08003 		orr	r3, r3, #128
  67 000c A0F84030 		strh	r3, [r0, #64]	@ movhi
  96:Drivers/STM32G4xx_HAL_Driver/Src/stm32g4xx_ll_usb.c **** 
  97:Drivers/STM32G4xx_HAL_Driver/Src/stm32g4xx_ll_usb.c ****   return HAL_OK;
  98:Drivers/STM32G4xx_HAL_Driver/Src/stm32g4xx_ll_usb.c **** }
  68              		.loc 1 98 0
  69 0010 0020     		movs	r0, #0
  70              	.LVL3:
  71 0012 7047     		bx	lr
  72              		.cfi_endproc
  73              	.LFE131:
  75              		.section	.text.USB_DisableGlobalInt,"ax",%progbits
  76              		.align	1
  77              		.global	USB_DisableGlobalInt
ARM GAS  /var/folders/17/j_dgbcc52q10y0jc3c_zbwd80000gn/T//ccdhwDmV.s 			page 4


  78              		.syntax unified
  79              		.thumb
  80              		.thumb_func
  81              		.fpu fpv5-sp-d16
  83              	USB_DisableGlobalInt:
  84              	.LFB132:
  99:Drivers/STM32G4xx_HAL_Driver/Src/stm32g4xx_ll_usb.c **** 
 100:Drivers/STM32G4xx_HAL_Driver/Src/stm32g4xx_ll_usb.c **** /**
 101:Drivers/STM32G4xx_HAL_Driver/Src/stm32g4xx_ll_usb.c ****   * @brief  USB_DisableGlobalInt
 102:Drivers/STM32G4xx_HAL_Driver/Src/stm32g4xx_ll_usb.c ****   *         Disable the controller's Global Int in the AHB Config reg
 103:Drivers/STM32G4xx_HAL_Driver/Src/stm32g4xx_ll_usb.c ****   * @param  USBx : Selected device
 104:Drivers/STM32G4xx_HAL_Driver/Src/stm32g4xx_ll_usb.c ****   * @retval HAL status
 105:Drivers/STM32G4xx_HAL_Driver/Src/stm32g4xx_ll_usb.c **** */
 106:Drivers/STM32G4xx_HAL_Driver/Src/stm32g4xx_ll_usb.c **** HAL_StatusTypeDef USB_DisableGlobalInt(USB_TypeDef *USBx)
 107:Drivers/STM32G4xx_HAL_Driver/Src/stm32g4xx_ll_usb.c **** {
  85              		.loc 1 107 0
  86              		.cfi_startproc
  87              		@ args = 0, pretend = 0, frame = 0
  88              		@ frame_needed = 0, uses_anonymous_args = 0
  89              		@ link register save eliminated.
  90              	.LVL4:
 108:Drivers/STM32G4xx_HAL_Driver/Src/stm32g4xx_ll_usb.c ****   uint32_t winterruptmask;
 109:Drivers/STM32G4xx_HAL_Driver/Src/stm32g4xx_ll_usb.c **** 
 110:Drivers/STM32G4xx_HAL_Driver/Src/stm32g4xx_ll_usb.c ****   /* Set winterruptmask variable */
 111:Drivers/STM32G4xx_HAL_Driver/Src/stm32g4xx_ll_usb.c ****   winterruptmask = USB_CNTR_CTRM  | USB_CNTR_WKUPM |
 112:Drivers/STM32G4xx_HAL_Driver/Src/stm32g4xx_ll_usb.c ****                    USB_CNTR_SUSPM | USB_CNTR_ERRM |
 113:Drivers/STM32G4xx_HAL_Driver/Src/stm32g4xx_ll_usb.c ****                    USB_CNTR_SOFM | USB_CNTR_ESOFM |
 114:Drivers/STM32G4xx_HAL_Driver/Src/stm32g4xx_ll_usb.c ****                    USB_CNTR_RESETM | USB_CNTR_L1REQM;
 115:Drivers/STM32G4xx_HAL_Driver/Src/stm32g4xx_ll_usb.c **** 
 116:Drivers/STM32G4xx_HAL_Driver/Src/stm32g4xx_ll_usb.c ****   /* Clear interrupt mask */
 117:Drivers/STM32G4xx_HAL_Driver/Src/stm32g4xx_ll_usb.c ****   USBx->CNTR &= (uint16_t)(~winterruptmask);
  91              		.loc 1 117 0
  92 0000 B0F84030 		ldrh	r3, [r0, #64]
  93 0004 23F47E53 		bic	r3, r3, #16256
  94 0008 5B04     		lsls	r3, r3, #17
  95 000a 5B0C     		lsrs	r3, r3, #17
  96 000c A0F84030 		strh	r3, [r0, #64]	@ movhi
 118:Drivers/STM32G4xx_HAL_Driver/Src/stm32g4xx_ll_usb.c **** 
 119:Drivers/STM32G4xx_HAL_Driver/Src/stm32g4xx_ll_usb.c ****   return HAL_OK;
 120:Drivers/STM32G4xx_HAL_Driver/Src/stm32g4xx_ll_usb.c **** }
  97              		.loc 1 120 0
  98 0010 0020     		movs	r0, #0
  99              	.LVL5:
 100 0012 7047     		bx	lr
 101              		.cfi_endproc
 102              	.LFE132:
 104              		.section	.text.USB_SetCurrentMode,"ax",%progbits
 105              		.align	1
 106              		.global	USB_SetCurrentMode
 107              		.syntax unified
 108              		.thumb
 109              		.thumb_func
 110              		.fpu fpv5-sp-d16
 112              	USB_SetCurrentMode:
 113              	.LFB133:
 121:Drivers/STM32G4xx_HAL_Driver/Src/stm32g4xx_ll_usb.c **** 
 122:Drivers/STM32G4xx_HAL_Driver/Src/stm32g4xx_ll_usb.c **** /**
ARM GAS  /var/folders/17/j_dgbcc52q10y0jc3c_zbwd80000gn/T//ccdhwDmV.s 			page 5


 123:Drivers/STM32G4xx_HAL_Driver/Src/stm32g4xx_ll_usb.c ****   * @brief  USB_SetCurrentMode : Set functional mode
 124:Drivers/STM32G4xx_HAL_Driver/Src/stm32g4xx_ll_usb.c ****   * @param  USBx : Selected device
 125:Drivers/STM32G4xx_HAL_Driver/Src/stm32g4xx_ll_usb.c ****   * @param  mode :  current core mode
 126:Drivers/STM32G4xx_HAL_Driver/Src/stm32g4xx_ll_usb.c ****   *          This parameter can be one of the these values:
 127:Drivers/STM32G4xx_HAL_Driver/Src/stm32g4xx_ll_usb.c ****   *            @arg USB_DEVICE_MODE: Peripheral mode mode
 128:Drivers/STM32G4xx_HAL_Driver/Src/stm32g4xx_ll_usb.c ****   * @retval HAL status
 129:Drivers/STM32G4xx_HAL_Driver/Src/stm32g4xx_ll_usb.c ****   */
 130:Drivers/STM32G4xx_HAL_Driver/Src/stm32g4xx_ll_usb.c **** HAL_StatusTypeDef USB_SetCurrentMode(USB_TypeDef *USBx, USB_ModeTypeDef mode)
 131:Drivers/STM32G4xx_HAL_Driver/Src/stm32g4xx_ll_usb.c **** {
 114              		.loc 1 131 0
 115              		.cfi_startproc
 116              		@ args = 0, pretend = 0, frame = 0
 117              		@ frame_needed = 0, uses_anonymous_args = 0
 118              		@ link register save eliminated.
 119              	.LVL6:
 132:Drivers/STM32G4xx_HAL_Driver/Src/stm32g4xx_ll_usb.c ****   /* Prevent unused argument(s) compilation warning */
 133:Drivers/STM32G4xx_HAL_Driver/Src/stm32g4xx_ll_usb.c ****   UNUSED(USBx);
 134:Drivers/STM32G4xx_HAL_Driver/Src/stm32g4xx_ll_usb.c ****   UNUSED(mode);
 135:Drivers/STM32G4xx_HAL_Driver/Src/stm32g4xx_ll_usb.c **** 
 136:Drivers/STM32G4xx_HAL_Driver/Src/stm32g4xx_ll_usb.c ****   /* NOTE : - This function is not required by USB Device FS peripheral, it is used
 137:Drivers/STM32G4xx_HAL_Driver/Src/stm32g4xx_ll_usb.c ****               only by USB OTG FS peripheral.
 138:Drivers/STM32G4xx_HAL_Driver/Src/stm32g4xx_ll_usb.c ****             - This function is added to ensure compatibility across platforms.
 139:Drivers/STM32G4xx_HAL_Driver/Src/stm32g4xx_ll_usb.c ****    */
 140:Drivers/STM32G4xx_HAL_Driver/Src/stm32g4xx_ll_usb.c ****   return HAL_OK;
 141:Drivers/STM32G4xx_HAL_Driver/Src/stm32g4xx_ll_usb.c **** }
 120              		.loc 1 141 0
 121 0000 0020     		movs	r0, #0
 122              	.LVL7:
 123 0002 7047     		bx	lr
 124              		.cfi_endproc
 125              	.LFE133:
 127              		.section	.text.USB_DevInit,"ax",%progbits
 128              		.align	1
 129              		.global	USB_DevInit
 130              		.syntax unified
 131              		.thumb
 132              		.thumb_func
 133              		.fpu fpv5-sp-d16
 135              	USB_DevInit:
 136              	.LFB134:
 142:Drivers/STM32G4xx_HAL_Driver/Src/stm32g4xx_ll_usb.c **** 
 143:Drivers/STM32G4xx_HAL_Driver/Src/stm32g4xx_ll_usb.c **** /**
 144:Drivers/STM32G4xx_HAL_Driver/Src/stm32g4xx_ll_usb.c ****   * @brief  USB_DevInit : Initializes the USB controller registers
 145:Drivers/STM32G4xx_HAL_Driver/Src/stm32g4xx_ll_usb.c ****   *         for device mode
 146:Drivers/STM32G4xx_HAL_Driver/Src/stm32g4xx_ll_usb.c ****   * @param  USBx : Selected device
 147:Drivers/STM32G4xx_HAL_Driver/Src/stm32g4xx_ll_usb.c ****   * @param  cfg  : pointer to a USB_CfgTypeDef structure that contains
 148:Drivers/STM32G4xx_HAL_Driver/Src/stm32g4xx_ll_usb.c ****   *         the configuration information for the specified USBx peripheral.
 149:Drivers/STM32G4xx_HAL_Driver/Src/stm32g4xx_ll_usb.c ****   * @retval HAL status
 150:Drivers/STM32G4xx_HAL_Driver/Src/stm32g4xx_ll_usb.c ****   */
 151:Drivers/STM32G4xx_HAL_Driver/Src/stm32g4xx_ll_usb.c **** HAL_StatusTypeDef USB_DevInit(USB_TypeDef *USBx, USB_CfgTypeDef cfg)
 152:Drivers/STM32G4xx_HAL_Driver/Src/stm32g4xx_ll_usb.c **** {
 137              		.loc 1 152 0
 138              		.cfi_startproc
 139              		@ args = 36, pretend = 16, frame = 0
 140              		@ frame_needed = 0, uses_anonymous_args = 0
 141              	.LVL8:
 142 0000 84B0     		sub	sp, sp, #16
ARM GAS  /var/folders/17/j_dgbcc52q10y0jc3c_zbwd80000gn/T//ccdhwDmV.s 			page 6


 143              		.cfi_def_cfa_offset 16
 144 0002 38B5     		push	{r3, r4, r5, lr}
 145              		.cfi_def_cfa_offset 32
 146              		.cfi_offset 3, -32
 147              		.cfi_offset 4, -28
 148              		.cfi_offset 5, -24
 149              		.cfi_offset 14, -20
 150 0004 05AC     		add	r4, sp, #20
 151 0006 84E80E00 		stm	r4, {r1, r2, r3}
 153:Drivers/STM32G4xx_HAL_Driver/Src/stm32g4xx_ll_usb.c ****   /* Prevent unused argument(s) compilation warning */
 154:Drivers/STM32G4xx_HAL_Driver/Src/stm32g4xx_ll_usb.c ****   UNUSED(cfg);
 155:Drivers/STM32G4xx_HAL_Driver/Src/stm32g4xx_ll_usb.c **** 
 156:Drivers/STM32G4xx_HAL_Driver/Src/stm32g4xx_ll_usb.c ****   /* Init Device */
 157:Drivers/STM32G4xx_HAL_Driver/Src/stm32g4xx_ll_usb.c ****   /*CNTR_FRES = 1*/
 158:Drivers/STM32G4xx_HAL_Driver/Src/stm32g4xx_ll_usb.c ****   USBx->CNTR = (uint16_t)USB_CNTR_FRES;
 152              		.loc 1 158 0
 153 000a 0123     		movs	r3, #1
 154 000c A0F84030 		strh	r3, [r0, #64]	@ movhi
 159:Drivers/STM32G4xx_HAL_Driver/Src/stm32g4xx_ll_usb.c **** 
 160:Drivers/STM32G4xx_HAL_Driver/Src/stm32g4xx_ll_usb.c ****   /*CNTR_FRES = 0*/
 161:Drivers/STM32G4xx_HAL_Driver/Src/stm32g4xx_ll_usb.c ****   USBx->CNTR = 0U;
 155              		.loc 1 161 0
 156 0010 0024     		movs	r4, #0
 157 0012 A0F84040 		strh	r4, [r0, #64]	@ movhi
 162:Drivers/STM32G4xx_HAL_Driver/Src/stm32g4xx_ll_usb.c **** 
 163:Drivers/STM32G4xx_HAL_Driver/Src/stm32g4xx_ll_usb.c ****   /*Clear pending interrupts*/
 164:Drivers/STM32G4xx_HAL_Driver/Src/stm32g4xx_ll_usb.c ****   USBx->ISTR = 0U;
 158              		.loc 1 164 0
 159 0016 A0F84440 		strh	r4, [r0, #68]	@ movhi
 165:Drivers/STM32G4xx_HAL_Driver/Src/stm32g4xx_ll_usb.c **** 
 166:Drivers/STM32G4xx_HAL_Driver/Src/stm32g4xx_ll_usb.c ****   /*Set Btable Address*/
 167:Drivers/STM32G4xx_HAL_Driver/Src/stm32g4xx_ll_usb.c ****   USBx->BTABLE = BTABLE_ADDRESS;
 160              		.loc 1 167 0
 161 001a A0F85040 		strh	r4, [r0, #80]	@ movhi
 168:Drivers/STM32G4xx_HAL_Driver/Src/stm32g4xx_ll_usb.c **** 
 169:Drivers/STM32G4xx_HAL_Driver/Src/stm32g4xx_ll_usb.c ****   /* Enable USB Device Interrupt mask */
 170:Drivers/STM32G4xx_HAL_Driver/Src/stm32g4xx_ll_usb.c ****   (void)USB_EnableGlobalInt(USBx);
 162              		.loc 1 170 0
 163 001e FFF7FEFF 		bl	USB_EnableGlobalInt
 164              	.LVL9:
 171:Drivers/STM32G4xx_HAL_Driver/Src/stm32g4xx_ll_usb.c **** 
 172:Drivers/STM32G4xx_HAL_Driver/Src/stm32g4xx_ll_usb.c ****   return HAL_OK;
 173:Drivers/STM32G4xx_HAL_Driver/Src/stm32g4xx_ll_usb.c **** }
 165              		.loc 1 173 0
 166 0022 2046     		mov	r0, r4
 167 0024 BDE83840 		pop	{r3, r4, r5, lr}
 168              		.cfi_restore 14
 169              		.cfi_restore 5
 170              		.cfi_restore 4
 171              		.cfi_restore 3
 172              		.cfi_def_cfa_offset 16
 173 0028 04B0     		add	sp, sp, #16
 174              		.cfi_def_cfa_offset 0
 175 002a 7047     		bx	lr
 176              		.cfi_endproc
 177              	.LFE134:
 179              		.section	.text.USB_SetDevSpeed,"ax",%progbits
ARM GAS  /var/folders/17/j_dgbcc52q10y0jc3c_zbwd80000gn/T//ccdhwDmV.s 			page 7


 180              		.align	1
 181              		.global	USB_SetDevSpeed
 182              		.syntax unified
 183              		.thumb
 184              		.thumb_func
 185              		.fpu fpv5-sp-d16
 187              	USB_SetDevSpeed:
 188              	.LFB135:
 174:Drivers/STM32G4xx_HAL_Driver/Src/stm32g4xx_ll_usb.c **** 
 175:Drivers/STM32G4xx_HAL_Driver/Src/stm32g4xx_ll_usb.c **** /**
 176:Drivers/STM32G4xx_HAL_Driver/Src/stm32g4xx_ll_usb.c ****   * @brief  USB_SetDevSpeed :Initializes the device speed
 177:Drivers/STM32G4xx_HAL_Driver/Src/stm32g4xx_ll_usb.c ****   *         depending on the PHY type and the enumeration speed of the device.
 178:Drivers/STM32G4xx_HAL_Driver/Src/stm32g4xx_ll_usb.c ****   * @param  USBx  Selected device
 179:Drivers/STM32G4xx_HAL_Driver/Src/stm32g4xx_ll_usb.c ****   * @param  speed  device speed
 180:Drivers/STM32G4xx_HAL_Driver/Src/stm32g4xx_ll_usb.c ****   * @retval  Hal status
 181:Drivers/STM32G4xx_HAL_Driver/Src/stm32g4xx_ll_usb.c ****   */
 182:Drivers/STM32G4xx_HAL_Driver/Src/stm32g4xx_ll_usb.c **** HAL_StatusTypeDef USB_SetDevSpeed(USB_TypeDef *USBx, uint8_t speed)
 183:Drivers/STM32G4xx_HAL_Driver/Src/stm32g4xx_ll_usb.c **** {
 189              		.loc 1 183 0
 190              		.cfi_startproc
 191              		@ args = 0, pretend = 0, frame = 0
 192              		@ frame_needed = 0, uses_anonymous_args = 0
 193              		@ link register save eliminated.
 194              	.LVL10:
 184:Drivers/STM32G4xx_HAL_Driver/Src/stm32g4xx_ll_usb.c ****   /* Prevent unused argument(s) compilation warning */
 185:Drivers/STM32G4xx_HAL_Driver/Src/stm32g4xx_ll_usb.c ****   UNUSED(USBx);
 186:Drivers/STM32G4xx_HAL_Driver/Src/stm32g4xx_ll_usb.c ****   UNUSED(speed);
 187:Drivers/STM32G4xx_HAL_Driver/Src/stm32g4xx_ll_usb.c **** 
 188:Drivers/STM32G4xx_HAL_Driver/Src/stm32g4xx_ll_usb.c ****   /* NOTE : - This function is not required by USB Device FS peripheral, it is used
 189:Drivers/STM32G4xx_HAL_Driver/Src/stm32g4xx_ll_usb.c ****               only by USB OTG FS peripheral.
 190:Drivers/STM32G4xx_HAL_Driver/Src/stm32g4xx_ll_usb.c ****             - This function is added to ensure compatibility across platforms.
 191:Drivers/STM32G4xx_HAL_Driver/Src/stm32g4xx_ll_usb.c ****    */
 192:Drivers/STM32G4xx_HAL_Driver/Src/stm32g4xx_ll_usb.c **** 
 193:Drivers/STM32G4xx_HAL_Driver/Src/stm32g4xx_ll_usb.c ****   return HAL_OK;
 194:Drivers/STM32G4xx_HAL_Driver/Src/stm32g4xx_ll_usb.c **** }
 195              		.loc 1 194 0
 196 0000 0020     		movs	r0, #0
 197              	.LVL11:
 198 0002 7047     		bx	lr
 199              		.cfi_endproc
 200              	.LFE135:
 202              		.section	.text.USB_FlushTxFifo,"ax",%progbits
 203              		.align	1
 204              		.global	USB_FlushTxFifo
 205              		.syntax unified
 206              		.thumb
 207              		.thumb_func
 208              		.fpu fpv5-sp-d16
 210              	USB_FlushTxFifo:
 211              	.LFB136:
 195:Drivers/STM32G4xx_HAL_Driver/Src/stm32g4xx_ll_usb.c **** 
 196:Drivers/STM32G4xx_HAL_Driver/Src/stm32g4xx_ll_usb.c **** /**
 197:Drivers/STM32G4xx_HAL_Driver/Src/stm32g4xx_ll_usb.c ****   * @brief  USB_FlushTxFifo : Flush a Tx FIFO
 198:Drivers/STM32G4xx_HAL_Driver/Src/stm32g4xx_ll_usb.c ****   * @param  USBx : Selected device
 199:Drivers/STM32G4xx_HAL_Driver/Src/stm32g4xx_ll_usb.c ****   * @param  num : FIFO number
 200:Drivers/STM32G4xx_HAL_Driver/Src/stm32g4xx_ll_usb.c ****   *         This parameter can be a value from 1 to 15
 201:Drivers/STM32G4xx_HAL_Driver/Src/stm32g4xx_ll_usb.c ****             15 means Flush all Tx FIFOs
ARM GAS  /var/folders/17/j_dgbcc52q10y0jc3c_zbwd80000gn/T//ccdhwDmV.s 			page 8


 202:Drivers/STM32G4xx_HAL_Driver/Src/stm32g4xx_ll_usb.c ****   * @retval HAL status
 203:Drivers/STM32G4xx_HAL_Driver/Src/stm32g4xx_ll_usb.c ****   */
 204:Drivers/STM32G4xx_HAL_Driver/Src/stm32g4xx_ll_usb.c **** HAL_StatusTypeDef USB_FlushTxFifo(USB_TypeDef *USBx, uint32_t num)
 205:Drivers/STM32G4xx_HAL_Driver/Src/stm32g4xx_ll_usb.c **** {
 212              		.loc 1 205 0
 213              		.cfi_startproc
 214              		@ args = 0, pretend = 0, frame = 0
 215              		@ frame_needed = 0, uses_anonymous_args = 0
 216              		@ link register save eliminated.
 217              	.LVL12:
 206:Drivers/STM32G4xx_HAL_Driver/Src/stm32g4xx_ll_usb.c ****   /* Prevent unused argument(s) compilation warning */
 207:Drivers/STM32G4xx_HAL_Driver/Src/stm32g4xx_ll_usb.c ****   UNUSED(USBx);
 208:Drivers/STM32G4xx_HAL_Driver/Src/stm32g4xx_ll_usb.c ****   UNUSED(num);
 209:Drivers/STM32G4xx_HAL_Driver/Src/stm32g4xx_ll_usb.c **** 
 210:Drivers/STM32G4xx_HAL_Driver/Src/stm32g4xx_ll_usb.c ****   /* NOTE : - This function is not required by USB Device FS peripheral, it is used
 211:Drivers/STM32G4xx_HAL_Driver/Src/stm32g4xx_ll_usb.c ****               only by USB OTG FS peripheral.
 212:Drivers/STM32G4xx_HAL_Driver/Src/stm32g4xx_ll_usb.c ****             - This function is added to ensure compatibility across platforms.
 213:Drivers/STM32G4xx_HAL_Driver/Src/stm32g4xx_ll_usb.c ****    */
 214:Drivers/STM32G4xx_HAL_Driver/Src/stm32g4xx_ll_usb.c **** 
 215:Drivers/STM32G4xx_HAL_Driver/Src/stm32g4xx_ll_usb.c ****   return HAL_OK;
 216:Drivers/STM32G4xx_HAL_Driver/Src/stm32g4xx_ll_usb.c **** }
 218              		.loc 1 216 0
 219 0000 0020     		movs	r0, #0
 220              	.LVL13:
 221 0002 7047     		bx	lr
 222              		.cfi_endproc
 223              	.LFE136:
 225              		.section	.text.USB_FlushRxFifo,"ax",%progbits
 226              		.align	1
 227              		.global	USB_FlushRxFifo
 228              		.syntax unified
 229              		.thumb
 230              		.thumb_func
 231              		.fpu fpv5-sp-d16
 233              	USB_FlushRxFifo:
 234              	.LFB137:
 217:Drivers/STM32G4xx_HAL_Driver/Src/stm32g4xx_ll_usb.c **** 
 218:Drivers/STM32G4xx_HAL_Driver/Src/stm32g4xx_ll_usb.c **** /**
 219:Drivers/STM32G4xx_HAL_Driver/Src/stm32g4xx_ll_usb.c ****   * @brief  USB_FlushRxFifo : Flush Rx FIFO
 220:Drivers/STM32G4xx_HAL_Driver/Src/stm32g4xx_ll_usb.c ****   * @param  USBx : Selected device
 221:Drivers/STM32G4xx_HAL_Driver/Src/stm32g4xx_ll_usb.c ****   * @retval HAL status
 222:Drivers/STM32G4xx_HAL_Driver/Src/stm32g4xx_ll_usb.c ****   */
 223:Drivers/STM32G4xx_HAL_Driver/Src/stm32g4xx_ll_usb.c **** HAL_StatusTypeDef USB_FlushRxFifo(USB_TypeDef *USBx)
 224:Drivers/STM32G4xx_HAL_Driver/Src/stm32g4xx_ll_usb.c **** {
 235              		.loc 1 224 0
 236              		.cfi_startproc
 237              		@ args = 0, pretend = 0, frame = 0
 238              		@ frame_needed = 0, uses_anonymous_args = 0
 239              		@ link register save eliminated.
 240              	.LVL14:
 225:Drivers/STM32G4xx_HAL_Driver/Src/stm32g4xx_ll_usb.c ****   /* Prevent unused argument(s) compilation warning */
 226:Drivers/STM32G4xx_HAL_Driver/Src/stm32g4xx_ll_usb.c ****   UNUSED(USBx);
 227:Drivers/STM32G4xx_HAL_Driver/Src/stm32g4xx_ll_usb.c **** 
 228:Drivers/STM32G4xx_HAL_Driver/Src/stm32g4xx_ll_usb.c ****   /* NOTE : - This function is not required by USB Device FS peripheral, it is used
 229:Drivers/STM32G4xx_HAL_Driver/Src/stm32g4xx_ll_usb.c ****               only by USB OTG FS peripheral.
 230:Drivers/STM32G4xx_HAL_Driver/Src/stm32g4xx_ll_usb.c ****             - This function is added to ensure compatibility across platforms.
 231:Drivers/STM32G4xx_HAL_Driver/Src/stm32g4xx_ll_usb.c ****    */
ARM GAS  /var/folders/17/j_dgbcc52q10y0jc3c_zbwd80000gn/T//ccdhwDmV.s 			page 9


 232:Drivers/STM32G4xx_HAL_Driver/Src/stm32g4xx_ll_usb.c **** 
 233:Drivers/STM32G4xx_HAL_Driver/Src/stm32g4xx_ll_usb.c ****   return HAL_OK;
 234:Drivers/STM32G4xx_HAL_Driver/Src/stm32g4xx_ll_usb.c **** }
 241              		.loc 1 234 0
 242 0000 0020     		movs	r0, #0
 243              	.LVL15:
 244 0002 7047     		bx	lr
 245              		.cfi_endproc
 246              	.LFE137:
 248              		.section	.text.USB_ActivateEndpoint,"ax",%progbits
 249              		.align	1
 250              		.global	USB_ActivateEndpoint
 251              		.syntax unified
 252              		.thumb
 253              		.thumb_func
 254              		.fpu fpv5-sp-d16
 256              	USB_ActivateEndpoint:
 257              	.LFB138:
 235:Drivers/STM32G4xx_HAL_Driver/Src/stm32g4xx_ll_usb.c **** 
 236:Drivers/STM32G4xx_HAL_Driver/Src/stm32g4xx_ll_usb.c **** /**
 237:Drivers/STM32G4xx_HAL_Driver/Src/stm32g4xx_ll_usb.c ****   * @brief  Activate and configure an endpoint
 238:Drivers/STM32G4xx_HAL_Driver/Src/stm32g4xx_ll_usb.c ****   * @param  USBx : Selected device
 239:Drivers/STM32G4xx_HAL_Driver/Src/stm32g4xx_ll_usb.c ****   * @param  ep: pointer to endpoint structure
 240:Drivers/STM32G4xx_HAL_Driver/Src/stm32g4xx_ll_usb.c ****   * @retval HAL status
 241:Drivers/STM32G4xx_HAL_Driver/Src/stm32g4xx_ll_usb.c ****   */
 242:Drivers/STM32G4xx_HAL_Driver/Src/stm32g4xx_ll_usb.c **** HAL_StatusTypeDef USB_ActivateEndpoint(USB_TypeDef *USBx, USB_EPTypeDef *ep)
 243:Drivers/STM32G4xx_HAL_Driver/Src/stm32g4xx_ll_usb.c **** {
 258              		.loc 1 243 0
 259              		.cfi_startproc
 260              		@ args = 0, pretend = 0, frame = 0
 261              		@ frame_needed = 0, uses_anonymous_args = 0
 262              		@ link register save eliminated.
 263              	.LVL16:
 264 0000 70B4     		push	{r4, r5, r6}
 265              		.cfi_def_cfa_offset 12
 266              		.cfi_offset 4, -12
 267              		.cfi_offset 5, -8
 268              		.cfi_offset 6, -4
 269 0002 0346     		mov	r3, r0
 270              	.LVL17:
 244:Drivers/STM32G4xx_HAL_Driver/Src/stm32g4xx_ll_usb.c ****   HAL_StatusTypeDef ret = HAL_OK;
 245:Drivers/STM32G4xx_HAL_Driver/Src/stm32g4xx_ll_usb.c ****   uint16_t wEpRegVal;
 246:Drivers/STM32G4xx_HAL_Driver/Src/stm32g4xx_ll_usb.c **** 
 247:Drivers/STM32G4xx_HAL_Driver/Src/stm32g4xx_ll_usb.c ****   wEpRegVal = PCD_GET_ENDPOINT(USBx, ep->num) & USB_EP_T_MASK;
 271              		.loc 1 247 0
 272 0004 0A78     		ldrb	r2, [r1]	@ zero_extendqisi2
 273 0006 30F82240 		ldrh	r4, [r0, r2, lsl #2]
 274 000a 24F4EC44 		bic	r4, r4, #30208
 275 000e 24F07004 		bic	r4, r4, #112
 276              	.LVL18:
 248:Drivers/STM32G4xx_HAL_Driver/Src/stm32g4xx_ll_usb.c **** 
 249:Drivers/STM32G4xx_HAL_Driver/Src/stm32g4xx_ll_usb.c ****   /* initialize Endpoint */
 250:Drivers/STM32G4xx_HAL_Driver/Src/stm32g4xx_ll_usb.c ****   switch (ep->type)
 277              		.loc 1 250 0
 278 0012 C878     		ldrb	r0, [r1, #3]	@ zero_extendqisi2
 279              	.LVL19:
 280 0014 0328     		cmp	r0, #3
ARM GAS  /var/folders/17/j_dgbcc52q10y0jc3c_zbwd80000gn/T//ccdhwDmV.s 			page 10


 281 0016 55D8     		bhi	.L36
 282 0018 DFE800F0 		tbb	[pc, r0]
 283              	.L14:
 284 001c 48       		.byte	(.L13-.L14)/2
 285 001d 50       		.byte	(.L15-.L14)/2
 286 001e 02       		.byte	(.L16-.L14)/2
 287 001f 4C       		.byte	(.L17-.L14)/2
 288              		.p2align 1
 289              	.L16:
 244:Drivers/STM32G4xx_HAL_Driver/Src/stm32g4xx_ll_usb.c ****   HAL_StatusTypeDef ret = HAL_OK;
 290              		.loc 1 244 0
 291 0020 0020     		movs	r0, #0
 292              	.L12:
 293              	.LVL20:
 251:Drivers/STM32G4xx_HAL_Driver/Src/stm32g4xx_ll_usb.c ****   {
 252:Drivers/STM32G4xx_HAL_Driver/Src/stm32g4xx_ll_usb.c ****     case EP_TYPE_CTRL:
 253:Drivers/STM32G4xx_HAL_Driver/Src/stm32g4xx_ll_usb.c ****       wEpRegVal |= USB_EP_CONTROL;
 254:Drivers/STM32G4xx_HAL_Driver/Src/stm32g4xx_ll_usb.c ****       break;
 255:Drivers/STM32G4xx_HAL_Driver/Src/stm32g4xx_ll_usb.c **** 
 256:Drivers/STM32G4xx_HAL_Driver/Src/stm32g4xx_ll_usb.c ****     case EP_TYPE_BULK:
 257:Drivers/STM32G4xx_HAL_Driver/Src/stm32g4xx_ll_usb.c ****       wEpRegVal |= USB_EP_BULK;
 258:Drivers/STM32G4xx_HAL_Driver/Src/stm32g4xx_ll_usb.c ****       break;
 259:Drivers/STM32G4xx_HAL_Driver/Src/stm32g4xx_ll_usb.c **** 
 260:Drivers/STM32G4xx_HAL_Driver/Src/stm32g4xx_ll_usb.c ****     case EP_TYPE_INTR:
 261:Drivers/STM32G4xx_HAL_Driver/Src/stm32g4xx_ll_usb.c ****       wEpRegVal |= USB_EP_INTERRUPT;
 262:Drivers/STM32G4xx_HAL_Driver/Src/stm32g4xx_ll_usb.c ****       break;
 263:Drivers/STM32G4xx_HAL_Driver/Src/stm32g4xx_ll_usb.c **** 
 264:Drivers/STM32G4xx_HAL_Driver/Src/stm32g4xx_ll_usb.c ****     case EP_TYPE_ISOC:
 265:Drivers/STM32G4xx_HAL_Driver/Src/stm32g4xx_ll_usb.c ****       wEpRegVal |= USB_EP_ISOCHRONOUS;
 266:Drivers/STM32G4xx_HAL_Driver/Src/stm32g4xx_ll_usb.c ****       break;
 267:Drivers/STM32G4xx_HAL_Driver/Src/stm32g4xx_ll_usb.c **** 
 268:Drivers/STM32G4xx_HAL_Driver/Src/stm32g4xx_ll_usb.c ****     default:
 269:Drivers/STM32G4xx_HAL_Driver/Src/stm32g4xx_ll_usb.c ****       ret = HAL_ERROR;
 270:Drivers/STM32G4xx_HAL_Driver/Src/stm32g4xx_ll_usb.c ****       break;
 271:Drivers/STM32G4xx_HAL_Driver/Src/stm32g4xx_ll_usb.c ****   }
 272:Drivers/STM32G4xx_HAL_Driver/Src/stm32g4xx_ll_usb.c **** 
 273:Drivers/STM32G4xx_HAL_Driver/Src/stm32g4xx_ll_usb.c ****   PCD_SET_ENDPOINT(USBx, ep->num, (wEpRegVal | USB_EP_CTR_RX | USB_EP_CTR_TX));
 294              		.loc 1 273 0
 295 0022 48F28006 		movw	r6, #32896
 296 0026 3443     		orrs	r4, r4, r6
 297              	.LVL21:
 298 0028 23F82240 		strh	r4, [r3, r2, lsl #2]	@ movhi
 299              	.LBB2:
 274:Drivers/STM32G4xx_HAL_Driver/Src/stm32g4xx_ll_usb.c **** 
 275:Drivers/STM32G4xx_HAL_Driver/Src/stm32g4xx_ll_usb.c ****   PCD_SET_EP_ADDRESS(USBx, ep->num, ep->num);
 300              		.loc 1 275 0
 301 002c 0C78     		ldrb	r4, [r1]	@ zero_extendqisi2
 302 002e 33F82450 		ldrh	r5, [r3, r4, lsl #2]
 303 0032 2DB2     		sxth	r5, r5
 304 0034 BA4A     		ldr	r2, .L38
 305 0036 2A40     		ands	r2, r2, r5
 306 0038 2243     		orrs	r2, r2, r4
 307 003a 92B2     		uxth	r2, r2
 308              	.LVL22:
 309 003c 3243     		orrs	r2, r2, r6
 310              	.LVL23:
 311 003e 23F82420 		strh	r2, [r3, r4, lsl #2]	@ movhi
ARM GAS  /var/folders/17/j_dgbcc52q10y0jc3c_zbwd80000gn/T//ccdhwDmV.s 			page 11


 312              	.LBE2:
 276:Drivers/STM32G4xx_HAL_Driver/Src/stm32g4xx_ll_usb.c **** 
 277:Drivers/STM32G4xx_HAL_Driver/Src/stm32g4xx_ll_usb.c ****   if (ep->doublebuffer == 0U)
 313              		.loc 1 277 0
 314 0042 0A7B     		ldrb	r2, [r1, #12]	@ zero_extendqisi2
 315 0044 002A     		cmp	r2, #0
 316 0046 40F0A680 		bne	.L18
 278:Drivers/STM32G4xx_HAL_Driver/Src/stm32g4xx_ll_usb.c ****   {
 279:Drivers/STM32G4xx_HAL_Driver/Src/stm32g4xx_ll_usb.c ****     if (ep->is_in != 0U)
 317              		.loc 1 279 0
 318 004a 4A78     		ldrb	r2, [r1, #1]	@ zero_extendqisi2
 319 004c 002A     		cmp	r2, #0
 320 004e 48D0     		beq	.L19
 321              	.LVL24:
 322              	.LBB3:
 280:Drivers/STM32G4xx_HAL_Driver/Src/stm32g4xx_ll_usb.c ****     {
 281:Drivers/STM32G4xx_HAL_Driver/Src/stm32g4xx_ll_usb.c ****       /*Set the endpoint Transmit buffer address */
 282:Drivers/STM32G4xx_HAL_Driver/Src/stm32g4xx_ll_usb.c ****       PCD_SET_EP_TX_ADDRESS(USBx, ep->num, ep->pmaadress);
 323              		.loc 1 282 0
 324 0050 B3F85020 		ldrh	r2, [r3, #80]
 325 0054 1A44     		add	r2, r2, r3
 326              	.LVL25:
 327 0056 0C78     		ldrb	r4, [r1]	@ zero_extendqisi2
 328              	.LVL26:
 329 0058 02EBC402 		add	r2, r2, r4, lsl #3
 330              	.LVL27:
 331 005c CC88     		ldrh	r4, [r1, #6]
 332 005e 6408     		lsrs	r4, r4, #1
 333 0060 6400     		lsls	r4, r4, #1
 334 0062 A2F80044 		strh	r4, [r2, #1024]	@ movhi
 335              	.LBE3:
 336              	.LBB4:
 283:Drivers/STM32G4xx_HAL_Driver/Src/stm32g4xx_ll_usb.c ****       PCD_CLEAR_TX_DTOG(USBx, ep->num);
 337              		.loc 1 283 0
 338 0066 0A78     		ldrb	r2, [r1]	@ zero_extendqisi2
 339              	.LVL28:
 340 0068 33F82240 		ldrh	r4, [r3, r2, lsl #2]
 341              	.LVL29:
 342 006c 14F0400F 		tst	r4, #64
 343 0070 0AD0     		beq	.L20
 344              	.LBB5:
 345              		.loc 1 283 0 is_stmt 0 discriminator 1
 346 0072 33F82250 		ldrh	r5, [r3, r2, lsl #2]
 347 0076 25F4E045 		bic	r5, r5, #28672
 348 007a 25F07005 		bic	r5, r5, #112
 349              	.LVL30:
 350 007e 48F2C004 		movw	r4, #32960
 351              	.LVL31:
 352 0082 2C43     		orrs	r4, r4, r5
 353 0084 23F82240 		strh	r4, [r3, r2, lsl #2]	@ movhi
 354              	.LVL32:
 355              	.L20:
 356              	.LBE5:
 357              	.LBE4:
 284:Drivers/STM32G4xx_HAL_Driver/Src/stm32g4xx_ll_usb.c **** 
 285:Drivers/STM32G4xx_HAL_Driver/Src/stm32g4xx_ll_usb.c ****       if (ep->type != EP_TYPE_ISOC)
 358              		.loc 1 285 0 is_stmt 1
ARM GAS  /var/folders/17/j_dgbcc52q10y0jc3c_zbwd80000gn/T//ccdhwDmV.s 			page 12


 359 0088 CA78     		ldrb	r2, [r1, #3]	@ zero_extendqisi2
 360 008a 012A     		cmp	r2, #1
 361 008c 1CD0     		beq	.L21
 362              	.LBB6:
 286:Drivers/STM32G4xx_HAL_Driver/Src/stm32g4xx_ll_usb.c ****       {
 287:Drivers/STM32G4xx_HAL_Driver/Src/stm32g4xx_ll_usb.c ****         /* Configure NAK status for the Endpoint */
 288:Drivers/STM32G4xx_HAL_Driver/Src/stm32g4xx_ll_usb.c ****         PCD_SET_EP_TX_STATUS(USBx, ep->num, USB_EP_TX_NAK);
 363              		.loc 1 288 0
 364 008e 0C78     		ldrb	r4, [r1]	@ zero_extendqisi2
 365 0090 33F82420 		ldrh	r2, [r3, r4, lsl #2]
 366 0094 22F4E042 		bic	r2, r2, #28672
 367 0098 22F04002 		bic	r2, r2, #64
 368              	.LVL33:
 369 009c 82F02002 		eor	r2, r2, #32
 370              	.LVL34:
 371 00a0 48F28001 		movw	r1, #32896
 372              	.LVL35:
 373 00a4 1143     		orrs	r1, r1, r2
 374 00a6 23F82410 		strh	r1, [r3, r4, lsl #2]	@ movhi
 375              	.LBE6:
 376 00aa 5AE0     		b	.L22
 377              	.LVL36:
 378              	.L13:
 253:Drivers/STM32G4xx_HAL_Driver/Src/stm32g4xx_ll_usb.c ****       break;
 379              		.loc 1 253 0
 380 00ac 44F40074 		orr	r4, r4, #512
 381              	.LVL37:
 244:Drivers/STM32G4xx_HAL_Driver/Src/stm32g4xx_ll_usb.c ****   uint16_t wEpRegVal;
 382              		.loc 1 244 0
 383 00b0 0020     		movs	r0, #0
 254:Drivers/STM32G4xx_HAL_Driver/Src/stm32g4xx_ll_usb.c **** 
 384              		.loc 1 254 0
 385 00b2 B6E7     		b	.L12
 386              	.L17:
 261:Drivers/STM32G4xx_HAL_Driver/Src/stm32g4xx_ll_usb.c ****       break;
 387              		.loc 1 261 0
 388 00b4 44F4C064 		orr	r4, r4, #1536
 389              	.LVL38:
 244:Drivers/STM32G4xx_HAL_Driver/Src/stm32g4xx_ll_usb.c ****   uint16_t wEpRegVal;
 390              		.loc 1 244 0
 391 00b8 0020     		movs	r0, #0
 262:Drivers/STM32G4xx_HAL_Driver/Src/stm32g4xx_ll_usb.c **** 
 392              		.loc 1 262 0
 393 00ba B2E7     		b	.L12
 394              	.L15:
 265:Drivers/STM32G4xx_HAL_Driver/Src/stm32g4xx_ll_usb.c ****       break;
 395              		.loc 1 265 0
 396 00bc 44F48064 		orr	r4, r4, #1024
 397              	.LVL39:
 244:Drivers/STM32G4xx_HAL_Driver/Src/stm32g4xx_ll_usb.c ****   uint16_t wEpRegVal;
 398              		.loc 1 244 0
 399 00c0 0020     		movs	r0, #0
 266:Drivers/STM32G4xx_HAL_Driver/Src/stm32g4xx_ll_usb.c **** 
 400              		.loc 1 266 0
 401 00c2 AEE7     		b	.L12
 402              	.L36:
 269:Drivers/STM32G4xx_HAL_Driver/Src/stm32g4xx_ll_usb.c ****       break;
ARM GAS  /var/folders/17/j_dgbcc52q10y0jc3c_zbwd80000gn/T//ccdhwDmV.s 			page 13


 403              		.loc 1 269 0
 404 00c4 0120     		movs	r0, #1
 405 00c6 ACE7     		b	.L12
 406              	.LVL40:
 407              	.L21:
 408              	.LBB7:
 289:Drivers/STM32G4xx_HAL_Driver/Src/stm32g4xx_ll_usb.c ****       }
 290:Drivers/STM32G4xx_HAL_Driver/Src/stm32g4xx_ll_usb.c ****       else
 291:Drivers/STM32G4xx_HAL_Driver/Src/stm32g4xx_ll_usb.c ****       {
 292:Drivers/STM32G4xx_HAL_Driver/Src/stm32g4xx_ll_usb.c ****         /* Configure TX Endpoint to disabled state */
 293:Drivers/STM32G4xx_HAL_Driver/Src/stm32g4xx_ll_usb.c ****         PCD_SET_EP_TX_STATUS(USBx, ep->num, USB_EP_TX_DIS);
 409              		.loc 1 293 0
 410 00c8 0C78     		ldrb	r4, [r1]	@ zero_extendqisi2
 411 00ca 33F82410 		ldrh	r1, [r3, r4, lsl #2]
 412              	.LVL41:
 413 00ce 21F4E041 		bic	r1, r1, #28672
 414 00d2 21F04001 		bic	r1, r1, #64
 415              	.LVL42:
 416 00d6 48F28002 		movw	r2, #32896
 417 00da 0A43     		orrs	r2, r2, r1
 418 00dc 23F82420 		strh	r2, [r3, r4, lsl #2]	@ movhi
 419 00e0 3FE0     		b	.L22
 420              	.LVL43:
 421              	.L19:
 422              	.LBE7:
 423              	.LBB8:
 294:Drivers/STM32G4xx_HAL_Driver/Src/stm32g4xx_ll_usb.c ****       }
 295:Drivers/STM32G4xx_HAL_Driver/Src/stm32g4xx_ll_usb.c ****     }
 296:Drivers/STM32G4xx_HAL_Driver/Src/stm32g4xx_ll_usb.c ****     else
 297:Drivers/STM32G4xx_HAL_Driver/Src/stm32g4xx_ll_usb.c ****     {
 298:Drivers/STM32G4xx_HAL_Driver/Src/stm32g4xx_ll_usb.c ****       /*Set the endpoint Receive buffer address */
 299:Drivers/STM32G4xx_HAL_Driver/Src/stm32g4xx_ll_usb.c ****       PCD_SET_EP_RX_ADDRESS(USBx, ep->num, ep->pmaadress);
 424              		.loc 1 299 0
 425 00e2 B3F85020 		ldrh	r2, [r3, #80]
 426 00e6 1A44     		add	r2, r2, r3
 427              	.LVL44:
 428 00e8 0C78     		ldrb	r4, [r1]	@ zero_extendqisi2
 429              	.LVL45:
 430 00ea 02EBC402 		add	r2, r2, r4, lsl #3
 431              	.LVL46:
 432 00ee CC88     		ldrh	r4, [r1, #6]
 433 00f0 6408     		lsrs	r4, r4, #1
 434 00f2 6400     		lsls	r4, r4, #1
 435 00f4 A2F80444 		strh	r4, [r2, #1028]	@ movhi
 436              	.LVL47:
 437              	.LBE8:
 438              	.LBB9:
 300:Drivers/STM32G4xx_HAL_Driver/Src/stm32g4xx_ll_usb.c ****       /*Set the endpoint Receive buffer counter*/
 301:Drivers/STM32G4xx_HAL_Driver/Src/stm32g4xx_ll_usb.c ****       PCD_SET_EP_RX_CNT(USBx, ep->num, ep->maxpacket);
 439              		.loc 1 301 0
 440 00f8 B3F85020 		ldrh	r2, [r3, #80]
 441              	.LVL48:
 442 00fc 1A44     		add	r2, r2, r3
 443              	.LVL49:
 444 00fe 0C78     		ldrb	r4, [r1]	@ zero_extendqisi2
 445 0100 02EBC402 		add	r2, r2, r4, lsl #3
 446              	.LVL50:
ARM GAS  /var/folders/17/j_dgbcc52q10y0jc3c_zbwd80000gn/T//ccdhwDmV.s 			page 14


 447              	.LBB10:
 448 0104 0C69     		ldr	r4, [r1, #16]
 449 0106 74BB     		cbnz	r4, .L23
 450              		.loc 1 301 0 is_stmt 0 discriminator 1
 451 0108 B2F80644 		ldrh	r4, [r2, #1030]
 452 010c A4B2     		uxth	r4, r4
 453 010e 24F4F844 		bic	r4, r4, #31744
 454 0112 A4B2     		uxth	r4, r4
 455 0114 A2F80644 		strh	r4, [r2, #1030]	@ movhi
 456 0118 B2F80644 		ldrh	r4, [r2, #1030]
 457 011c 44F40044 		orr	r4, r4, #32768
 458 0120 A2F80644 		strh	r4, [r2, #1030]	@ movhi
 459              	.L24:
 460              	.LBE10:
 461              	.LBE9:
 462              	.LBB12:
 302:Drivers/STM32G4xx_HAL_Driver/Src/stm32g4xx_ll_usb.c ****       PCD_CLEAR_RX_DTOG(USBx, ep->num);
 463              		.loc 1 302 0 is_stmt 1
 464 0124 0A78     		ldrb	r2, [r1]	@ zero_extendqisi2
 465              	.LVL51:
 466 0126 33F82240 		ldrh	r4, [r3, r2, lsl #2]
 467              	.LVL52:
 468 012a 14F4804F 		tst	r4, #16384
 469 012e 0AD0     		beq	.L28
 470              	.LBB13:
 471              		.loc 1 302 0 is_stmt 0 discriminator 1
 472 0130 33F82250 		ldrh	r5, [r3, r2, lsl #2]
 473 0134 25F4E045 		bic	r5, r5, #28672
 474 0138 25F07005 		bic	r5, r5, #112
 475              	.LVL53:
 476 013c 4CF28004 		movw	r4, #49280
 477              	.LVL54:
 478 0140 2C43     		orrs	r4, r4, r5
 479 0142 23F82240 		strh	r4, [r3, r2, lsl #2]	@ movhi
 480              	.LVL55:
 481              	.L28:
 482              	.LBE13:
 483              	.LBE12:
 484              	.LBB14:
 303:Drivers/STM32G4xx_HAL_Driver/Src/stm32g4xx_ll_usb.c ****       /* Configure VALID status for the Endpoint*/
 304:Drivers/STM32G4xx_HAL_Driver/Src/stm32g4xx_ll_usb.c ****       PCD_SET_EP_RX_STATUS(USBx, ep->num, USB_EP_RX_VALID);
 485              		.loc 1 304 0 is_stmt 1
 486 0146 0C78     		ldrb	r4, [r1]	@ zero_extendqisi2
 487 0148 33F82420 		ldrh	r2, [r3, r4, lsl #2]
 488 014c 22F48042 		bic	r2, r2, #16384
 489 0150 22F07002 		bic	r2, r2, #112
 490              	.LVL56:
 491 0154 82F44052 		eor	r2, r2, #12288
 492              	.LVL57:
 493 0158 48F28001 		movw	r1, #32896
 494              	.LVL58:
 495 015c 1143     		orrs	r1, r1, r2
 496 015e 23F82410 		strh	r1, [r3, r4, lsl #2]	@ movhi
 497              	.LVL59:
 498              	.L22:
 499              	.LBE14:
 305:Drivers/STM32G4xx_HAL_Driver/Src/stm32g4xx_ll_usb.c ****     }
ARM GAS  /var/folders/17/j_dgbcc52q10y0jc3c_zbwd80000gn/T//ccdhwDmV.s 			page 15


 306:Drivers/STM32G4xx_HAL_Driver/Src/stm32g4xx_ll_usb.c ****   }
 307:Drivers/STM32G4xx_HAL_Driver/Src/stm32g4xx_ll_usb.c ****   /*Double Buffer*/
 308:Drivers/STM32G4xx_HAL_Driver/Src/stm32g4xx_ll_usb.c ****   else
 309:Drivers/STM32G4xx_HAL_Driver/Src/stm32g4xx_ll_usb.c ****   {
 310:Drivers/STM32G4xx_HAL_Driver/Src/stm32g4xx_ll_usb.c ****     /* Set the endpoint as double buffered */
 311:Drivers/STM32G4xx_HAL_Driver/Src/stm32g4xx_ll_usb.c ****     PCD_SET_EP_DBUF(USBx, ep->num);
 312:Drivers/STM32G4xx_HAL_Driver/Src/stm32g4xx_ll_usb.c ****     /* Set buffer address for double buffered mode */
 313:Drivers/STM32G4xx_HAL_Driver/Src/stm32g4xx_ll_usb.c ****     PCD_SET_EP_DBUF_ADDR(USBx, ep->num, ep->pmaaddr0, ep->pmaaddr1);
 314:Drivers/STM32G4xx_HAL_Driver/Src/stm32g4xx_ll_usb.c **** 
 315:Drivers/STM32G4xx_HAL_Driver/Src/stm32g4xx_ll_usb.c ****     if (ep->is_in == 0U)
 316:Drivers/STM32G4xx_HAL_Driver/Src/stm32g4xx_ll_usb.c ****     {
 317:Drivers/STM32G4xx_HAL_Driver/Src/stm32g4xx_ll_usb.c ****       /* Clear the data toggle bits for the endpoint IN/OUT */
 318:Drivers/STM32G4xx_HAL_Driver/Src/stm32g4xx_ll_usb.c ****       PCD_CLEAR_RX_DTOG(USBx, ep->num);
 319:Drivers/STM32G4xx_HAL_Driver/Src/stm32g4xx_ll_usb.c ****       PCD_CLEAR_TX_DTOG(USBx, ep->num);
 320:Drivers/STM32G4xx_HAL_Driver/Src/stm32g4xx_ll_usb.c **** 
 321:Drivers/STM32G4xx_HAL_Driver/Src/stm32g4xx_ll_usb.c ****       /* Reset value of the data toggle bits for the endpoint out */
 322:Drivers/STM32G4xx_HAL_Driver/Src/stm32g4xx_ll_usb.c ****       PCD_TX_DTOG(USBx, ep->num);
 323:Drivers/STM32G4xx_HAL_Driver/Src/stm32g4xx_ll_usb.c **** 
 324:Drivers/STM32G4xx_HAL_Driver/Src/stm32g4xx_ll_usb.c ****       PCD_SET_EP_RX_STATUS(USBx, ep->num, USB_EP_RX_VALID);
 325:Drivers/STM32G4xx_HAL_Driver/Src/stm32g4xx_ll_usb.c ****       PCD_SET_EP_TX_STATUS(USBx, ep->num, USB_EP_TX_DIS);
 326:Drivers/STM32G4xx_HAL_Driver/Src/stm32g4xx_ll_usb.c ****     }
 327:Drivers/STM32G4xx_HAL_Driver/Src/stm32g4xx_ll_usb.c ****     else
 328:Drivers/STM32G4xx_HAL_Driver/Src/stm32g4xx_ll_usb.c ****     {
 329:Drivers/STM32G4xx_HAL_Driver/Src/stm32g4xx_ll_usb.c ****       /* Clear the data toggle bits for the endpoint IN/OUT */
 330:Drivers/STM32G4xx_HAL_Driver/Src/stm32g4xx_ll_usb.c ****       PCD_CLEAR_RX_DTOG(USBx, ep->num);
 331:Drivers/STM32G4xx_HAL_Driver/Src/stm32g4xx_ll_usb.c ****       PCD_CLEAR_TX_DTOG(USBx, ep->num);
 332:Drivers/STM32G4xx_HAL_Driver/Src/stm32g4xx_ll_usb.c ****       PCD_RX_DTOG(USBx, ep->num);
 333:Drivers/STM32G4xx_HAL_Driver/Src/stm32g4xx_ll_usb.c **** 
 334:Drivers/STM32G4xx_HAL_Driver/Src/stm32g4xx_ll_usb.c ****       if (ep->type != EP_TYPE_ISOC)
 335:Drivers/STM32G4xx_HAL_Driver/Src/stm32g4xx_ll_usb.c ****       {
 336:Drivers/STM32G4xx_HAL_Driver/Src/stm32g4xx_ll_usb.c ****         /* Configure NAK status for the Endpoint */
 337:Drivers/STM32G4xx_HAL_Driver/Src/stm32g4xx_ll_usb.c ****         PCD_SET_EP_TX_STATUS(USBx, ep->num, USB_EP_TX_NAK);
 338:Drivers/STM32G4xx_HAL_Driver/Src/stm32g4xx_ll_usb.c ****       }
 339:Drivers/STM32G4xx_HAL_Driver/Src/stm32g4xx_ll_usb.c ****       else
 340:Drivers/STM32G4xx_HAL_Driver/Src/stm32g4xx_ll_usb.c ****       {
 341:Drivers/STM32G4xx_HAL_Driver/Src/stm32g4xx_ll_usb.c ****         /* Configure TX Endpoint to disabled state */
 342:Drivers/STM32G4xx_HAL_Driver/Src/stm32g4xx_ll_usb.c ****         PCD_SET_EP_TX_STATUS(USBx, ep->num, USB_EP_TX_DIS);
 343:Drivers/STM32G4xx_HAL_Driver/Src/stm32g4xx_ll_usb.c ****       }
 344:Drivers/STM32G4xx_HAL_Driver/Src/stm32g4xx_ll_usb.c **** 
 345:Drivers/STM32G4xx_HAL_Driver/Src/stm32g4xx_ll_usb.c ****       PCD_SET_EP_RX_STATUS(USBx, ep->num, USB_EP_RX_DIS);
 346:Drivers/STM32G4xx_HAL_Driver/Src/stm32g4xx_ll_usb.c ****     }
 347:Drivers/STM32G4xx_HAL_Driver/Src/stm32g4xx_ll_usb.c ****   }
 348:Drivers/STM32G4xx_HAL_Driver/Src/stm32g4xx_ll_usb.c **** 
 349:Drivers/STM32G4xx_HAL_Driver/Src/stm32g4xx_ll_usb.c ****   return ret;
 350:Drivers/STM32G4xx_HAL_Driver/Src/stm32g4xx_ll_usb.c **** }
 500              		.loc 1 350 0
 501 0162 70BC     		pop	{r4, r5, r6}
 502              		.cfi_remember_state
 503              		.cfi_restore 6
 504              		.cfi_restore 5
 505              		.cfi_restore 4
 506              		.cfi_def_cfa_offset 0
 507 0164 7047     		bx	lr
 508              	.LVL60:
 509              	.L23:
 510              		.cfi_restore_state
 511              	.LBB15:
ARM GAS  /var/folders/17/j_dgbcc52q10y0jc3c_zbwd80000gn/T//ccdhwDmV.s 			page 16


 512              	.LBB11:
 301:Drivers/STM32G4xx_HAL_Driver/Src/stm32g4xx_ll_usb.c ****       PCD_CLEAR_RX_DTOG(USBx, ep->num);
 513              		.loc 1 301 0 discriminator 2
 514 0166 3E2C     		cmp	r4, #62
 515 0168 09D8     		bhi	.L25
 301:Drivers/STM32G4xx_HAL_Driver/Src/stm32g4xx_ll_usb.c ****       PCD_CLEAR_RX_DTOG(USBx, ep->num);
 516              		.loc 1 301 0 is_stmt 0 discriminator 3
 517 016a 6508     		lsrs	r5, r4, #1
 518              	.LVL61:
 519 016c 14F0010F 		tst	r4, #1
 520 0170 00D0     		beq	.L26
 301:Drivers/STM32G4xx_HAL_Driver/Src/stm32g4xx_ll_usb.c ****       PCD_CLEAR_RX_DTOG(USBx, ep->num);
 521              		.loc 1 301 0 discriminator 5
 522 0172 0135     		adds	r5, r5, #1
 523              	.LVL62:
 524              	.L26:
 301:Drivers/STM32G4xx_HAL_Driver/Src/stm32g4xx_ll_usb.c ****       PCD_CLEAR_RX_DTOG(USBx, ep->num);
 525              		.loc 1 301 0 discriminator 7
 526 0174 AD02     		lsls	r5, r5, #10
 527              	.LVL63:
 528 0176 ADB2     		uxth	r5, r5
 529 0178 A2F80654 		strh	r5, [r2, #1030]	@ movhi
 530 017c D2E7     		b	.L24
 531              	.L25:
 301:Drivers/STM32G4xx_HAL_Driver/Src/stm32g4xx_ll_usb.c ****       PCD_CLEAR_RX_DTOG(USBx, ep->num);
 532              		.loc 1 301 0 discriminator 4
 533 017e 6509     		lsrs	r5, r4, #5
 534              	.LVL64:
 535 0180 14F01F0F 		tst	r4, #31
 536 0184 00D1     		bne	.L27
 301:Drivers/STM32G4xx_HAL_Driver/Src/stm32g4xx_ll_usb.c ****       PCD_CLEAR_RX_DTOG(USBx, ep->num);
 537              		.loc 1 301 0 discriminator 8
 538 0186 013D     		subs	r5, r5, #1
 539              	.LVL65:
 540              	.L27:
 301:Drivers/STM32G4xx_HAL_Driver/Src/stm32g4xx_ll_usb.c ****       PCD_CLEAR_RX_DTOG(USBx, ep->num);
 541              		.loc 1 301 0 discriminator 10
 542 0188 AC02     		lsls	r4, r5, #10
 543 018a A4B2     		uxth	r4, r4
 544 018c 44F40044 		orr	r4, r4, #32768
 545 0190 A2F80644 		strh	r4, [r2, #1030]	@ movhi
 546 0194 C6E7     		b	.L24
 547              	.LVL66:
 548              	.L18:
 549              	.LBE11:
 550              	.LBE15:
 551              	.LBB16:
 311:Drivers/STM32G4xx_HAL_Driver/Src/stm32g4xx_ll_usb.c ****     /* Set buffer address for double buffered mode */
 552              		.loc 1 311 0 is_stmt 1
 553 0196 0D78     		ldrb	r5, [r1]	@ zero_extendqisi2
 554              	.LVL67:
 555 0198 33F82540 		ldrh	r4, [r3, r5, lsl #2]
 556 019c 24F4E044 		bic	r4, r4, #28672
 557 01a0 24F07004 		bic	r4, r4, #112
 558              	.LVL68:
 559 01a4 48F28012 		movw	r2, #33152
 560 01a8 2243     		orrs	r2, r2, r4
ARM GAS  /var/folders/17/j_dgbcc52q10y0jc3c_zbwd80000gn/T//ccdhwDmV.s 			page 17


 561 01aa 23F82520 		strh	r2, [r3, r5, lsl #2]	@ movhi
 562              	.LVL69:
 563              	.LBE16:
 564              	.LBB17:
 313:Drivers/STM32G4xx_HAL_Driver/Src/stm32g4xx_ll_usb.c **** 
 565              		.loc 1 313 0
 566 01ae B3F85020 		ldrh	r2, [r3, #80]
 567 01b2 1A44     		add	r2, r2, r3
 568              	.LVL70:
 569 01b4 0C78     		ldrb	r4, [r1]	@ zero_extendqisi2
 570              	.LVL71:
 571 01b6 02EBC402 		add	r2, r2, r4, lsl #3
 572              	.LVL72:
 573 01ba 0C89     		ldrh	r4, [r1, #8]
 574 01bc 6408     		lsrs	r4, r4, #1
 575 01be 6400     		lsls	r4, r4, #1
 576 01c0 A2F80044 		strh	r4, [r2, #1024]	@ movhi
 577              	.LVL73:
 578              	.LBE17:
 579              	.LBB18:
 580 01c4 B3F85020 		ldrh	r2, [r3, #80]
 581              	.LVL74:
 582 01c8 1A44     		add	r2, r2, r3
 583              	.LVL75:
 584 01ca 0C78     		ldrb	r4, [r1]	@ zero_extendqisi2
 585 01cc 02EBC402 		add	r2, r2, r4, lsl #3
 586              	.LVL76:
 587 01d0 4C89     		ldrh	r4, [r1, #10]
 588 01d2 6408     		lsrs	r4, r4, #1
 589 01d4 6400     		lsls	r4, r4, #1
 590 01d6 A2F80444 		strh	r4, [r2, #1028]	@ movhi
 591              	.LBE18:
 315:Drivers/STM32G4xx_HAL_Driver/Src/stm32g4xx_ll_usb.c ****     {
 592              		.loc 1 315 0
 593 01da 4A78     		ldrb	r2, [r1, #1]	@ zero_extendqisi2
 594              	.LVL77:
 595 01dc 002A     		cmp	r2, #0
 596 01de 46D1     		bne	.L29
 597              	.LBB19:
 318:Drivers/STM32G4xx_HAL_Driver/Src/stm32g4xx_ll_usb.c ****       PCD_CLEAR_TX_DTOG(USBx, ep->num);
 598              		.loc 1 318 0
 599 01e0 0A78     		ldrb	r2, [r1]	@ zero_extendqisi2
 600 01e2 33F82240 		ldrh	r4, [r3, r2, lsl #2]
 601              	.LVL78:
 602 01e6 14F4804F 		tst	r4, #16384
 603 01ea 0AD0     		beq	.L30
 604              	.LBB20:
 318:Drivers/STM32G4xx_HAL_Driver/Src/stm32g4xx_ll_usb.c ****       PCD_CLEAR_TX_DTOG(USBx, ep->num);
 605              		.loc 1 318 0 is_stmt 0 discriminator 1
 606 01ec 33F82250 		ldrh	r5, [r3, r2, lsl #2]
 607 01f0 25F4E045 		bic	r5, r5, #28672
 608 01f4 25F07005 		bic	r5, r5, #112
 609              	.LVL79:
 610 01f8 4CF28004 		movw	r4, #49280
 611              	.LVL80:
 612 01fc 2C43     		orrs	r4, r4, r5
 613 01fe 23F82240 		strh	r4, [r3, r2, lsl #2]	@ movhi
ARM GAS  /var/folders/17/j_dgbcc52q10y0jc3c_zbwd80000gn/T//ccdhwDmV.s 			page 18


 614              	.LVL81:
 615              	.L30:
 616              	.LBE20:
 617              	.LBE19:
 618              	.LBB21:
 319:Drivers/STM32G4xx_HAL_Driver/Src/stm32g4xx_ll_usb.c **** 
 619              		.loc 1 319 0 is_stmt 1
 620 0202 0A78     		ldrb	r2, [r1]	@ zero_extendqisi2
 621 0204 33F82240 		ldrh	r4, [r3, r2, lsl #2]
 622              	.LVL82:
 623 0208 14F0400F 		tst	r4, #64
 624 020c 0AD0     		beq	.L31
 625              	.LBB22:
 319:Drivers/STM32G4xx_HAL_Driver/Src/stm32g4xx_ll_usb.c **** 
 626              		.loc 1 319 0 is_stmt 0 discriminator 1
 627 020e 33F82250 		ldrh	r5, [r3, r2, lsl #2]
 628 0212 25F4E045 		bic	r5, r5, #28672
 629 0216 25F07005 		bic	r5, r5, #112
 630              	.LVL83:
 631 021a 48F2C004 		movw	r4, #32960
 632              	.LVL84:
 633 021e 2C43     		orrs	r4, r4, r5
 634 0220 23F82240 		strh	r4, [r3, r2, lsl #2]	@ movhi
 635              	.LVL85:
 636              	.L31:
 637              	.LBE22:
 638              	.LBE21:
 639              	.LBB23:
 322:Drivers/STM32G4xx_HAL_Driver/Src/stm32g4xx_ll_usb.c **** 
 640              		.loc 1 322 0 is_stmt 1
 641 0224 0D78     		ldrb	r5, [r1]	@ zero_extendqisi2
 642 0226 33F82540 		ldrh	r4, [r3, r5, lsl #2]
 643 022a 24F4E044 		bic	r4, r4, #28672
 644 022e 24F07004 		bic	r4, r4, #112
 645              	.LVL86:
 646 0232 48F2C002 		movw	r2, #32960
 647 0236 2243     		orrs	r2, r2, r4
 648 0238 23F82520 		strh	r2, [r3, r5, lsl #2]	@ movhi
 649              	.LBE23:
 650              	.LBB24:
 324:Drivers/STM32G4xx_HAL_Driver/Src/stm32g4xx_ll_usb.c ****       PCD_SET_EP_TX_STATUS(USBx, ep->num, USB_EP_TX_DIS);
 651              		.loc 1 324 0
 652 023c 0D78     		ldrb	r5, [r1]	@ zero_extendqisi2
 653 023e 33F82520 		ldrh	r2, [r3, r5, lsl #2]
 654 0242 22F48042 		bic	r2, r2, #16384
 655 0246 22F07002 		bic	r2, r2, #112
 656              	.LVL87:
 657 024a 82F44052 		eor	r2, r2, #12288
 658              	.LVL88:
 659 024e 48F28004 		movw	r4, #32896
 660              	.LVL89:
 661 0252 2243     		orrs	r2, r2, r4
 662              	.LVL90:
 663 0254 23F82520 		strh	r2, [r3, r5, lsl #2]	@ movhi
 664              	.LBE24:
 665              	.LBB25:
 325:Drivers/STM32G4xx_HAL_Driver/Src/stm32g4xx_ll_usb.c ****     }
ARM GAS  /var/folders/17/j_dgbcc52q10y0jc3c_zbwd80000gn/T//ccdhwDmV.s 			page 19


 666              		.loc 1 325 0
 667 0258 0978     		ldrb	r1, [r1]	@ zero_extendqisi2
 668              	.LVL91:
 669 025a 33F82120 		ldrh	r2, [r3, r1, lsl #2]
 670 025e 22F4E042 		bic	r2, r2, #28672
 671 0262 22F04002 		bic	r2, r2, #64
 672              	.LVL92:
 673 0266 2243     		orrs	r2, r2, r4
 674              	.LVL93:
 675 0268 23F82120 		strh	r2, [r3, r1, lsl #2]	@ movhi
 676              	.LBE25:
 677 026c 79E7     		b	.L22
 678              	.LVL94:
 679              	.L29:
 680              	.LBB26:
 330:Drivers/STM32G4xx_HAL_Driver/Src/stm32g4xx_ll_usb.c ****       PCD_CLEAR_TX_DTOG(USBx, ep->num);
 681              		.loc 1 330 0
 682 026e 0A78     		ldrb	r2, [r1]	@ zero_extendqisi2
 683 0270 33F82240 		ldrh	r4, [r3, r2, lsl #2]
 684              	.LVL95:
 685 0274 14F4804F 		tst	r4, #16384
 686 0278 0AD0     		beq	.L32
 687              	.LBB27:
 330:Drivers/STM32G4xx_HAL_Driver/Src/stm32g4xx_ll_usb.c ****       PCD_CLEAR_TX_DTOG(USBx, ep->num);
 688              		.loc 1 330 0 is_stmt 0 discriminator 1
 689 027a 33F82250 		ldrh	r5, [r3, r2, lsl #2]
 690 027e 25F4E045 		bic	r5, r5, #28672
 691 0282 25F07005 		bic	r5, r5, #112
 692              	.LVL96:
 693 0286 4CF28004 		movw	r4, #49280
 694              	.LVL97:
 695 028a 2C43     		orrs	r4, r4, r5
 696 028c 23F82240 		strh	r4, [r3, r2, lsl #2]	@ movhi
 697              	.LVL98:
 698              	.L32:
 699              	.LBE27:
 700              	.LBE26:
 701              	.LBB28:
 331:Drivers/STM32G4xx_HAL_Driver/Src/stm32g4xx_ll_usb.c ****       PCD_RX_DTOG(USBx, ep->num);
 702              		.loc 1 331 0 is_stmt 1
 703 0290 0A78     		ldrb	r2, [r1]	@ zero_extendqisi2
 704 0292 33F82240 		ldrh	r4, [r3, r2, lsl #2]
 705              	.LVL99:
 706 0296 14F0400F 		tst	r4, #64
 707 029a 0AD0     		beq	.L33
 708              	.LBB29:
 331:Drivers/STM32G4xx_HAL_Driver/Src/stm32g4xx_ll_usb.c ****       PCD_RX_DTOG(USBx, ep->num);
 709              		.loc 1 331 0 is_stmt 0 discriminator 1
 710 029c 33F82250 		ldrh	r5, [r3, r2, lsl #2]
 711 02a0 25F4E045 		bic	r5, r5, #28672
 712 02a4 25F07005 		bic	r5, r5, #112
 713              	.LVL100:
 714 02a8 48F2C004 		movw	r4, #32960
 715              	.LVL101:
 716 02ac 2C43     		orrs	r4, r4, r5
 717 02ae 23F82240 		strh	r4, [r3, r2, lsl #2]	@ movhi
 718              	.LVL102:
ARM GAS  /var/folders/17/j_dgbcc52q10y0jc3c_zbwd80000gn/T//ccdhwDmV.s 			page 20


 719              	.L33:
 720              	.LBE29:
 721              	.LBE28:
 722              	.LBB30:
 332:Drivers/STM32G4xx_HAL_Driver/Src/stm32g4xx_ll_usb.c **** 
 723              		.loc 1 332 0 is_stmt 1
 724 02b2 0D78     		ldrb	r5, [r1]	@ zero_extendqisi2
 725 02b4 33F82540 		ldrh	r4, [r3, r5, lsl #2]
 726 02b8 24F4E044 		bic	r4, r4, #28672
 727 02bc 24F07004 		bic	r4, r4, #112
 728              	.LVL103:
 729 02c0 4CF28002 		movw	r2, #49280
 730 02c4 2243     		orrs	r2, r2, r4
 731 02c6 23F82520 		strh	r2, [r3, r5, lsl #2]	@ movhi
 732              	.LBE30:
 334:Drivers/STM32G4xx_HAL_Driver/Src/stm32g4xx_ll_usb.c ****       {
 733              		.loc 1 334 0
 734 02ca CA78     		ldrb	r2, [r1, #3]	@ zero_extendqisi2
 735 02cc 012A     		cmp	r2, #1
 736 02ce 1AD0     		beq	.L34
 737              	.LBB31:
 337:Drivers/STM32G4xx_HAL_Driver/Src/stm32g4xx_ll_usb.c ****       }
 738              		.loc 1 337 0
 739 02d0 0D78     		ldrb	r5, [r1]	@ zero_extendqisi2
 740 02d2 33F82520 		ldrh	r2, [r3, r5, lsl #2]
 741 02d6 22F4E042 		bic	r2, r2, #28672
 742 02da 22F04002 		bic	r2, r2, #64
 743              	.LVL104:
 744 02de 82F02002 		eor	r2, r2, #32
 745              	.LVL105:
 746 02e2 48F28004 		movw	r4, #32896
 747              	.LVL106:
 748 02e6 1443     		orrs	r4, r4, r2
 749 02e8 23F82540 		strh	r4, [r3, r5, lsl #2]	@ movhi
 750              	.LVL107:
 751              	.L35:
 752              	.LBE31:
 753              	.LBB32:
 345:Drivers/STM32G4xx_HAL_Driver/Src/stm32g4xx_ll_usb.c ****     }
 754              		.loc 1 345 0
 755 02ec 0C78     		ldrb	r4, [r1]	@ zero_extendqisi2
 756 02ee 33F82410 		ldrh	r1, [r3, r4, lsl #2]
 757              	.LVL108:
 758 02f2 21F48041 		bic	r1, r1, #16384
 759 02f6 21F07001 		bic	r1, r1, #112
 760              	.LVL109:
 761 02fa 48F28002 		movw	r2, #32896
 762 02fe 0A43     		orrs	r2, r2, r1
 763 0300 23F82420 		strh	r2, [r3, r4, lsl #2]	@ movhi
 764 0304 2DE7     		b	.L22
 765              	.LVL110:
 766              	.L34:
 767              	.LBE32:
 768              	.LBB33:
 342:Drivers/STM32G4xx_HAL_Driver/Src/stm32g4xx_ll_usb.c ****       }
 769              		.loc 1 342 0
 770 0306 0D78     		ldrb	r5, [r1]	@ zero_extendqisi2
ARM GAS  /var/folders/17/j_dgbcc52q10y0jc3c_zbwd80000gn/T//ccdhwDmV.s 			page 21


 771 0308 33F82540 		ldrh	r4, [r3, r5, lsl #2]
 772              	.LVL111:
 773 030c 24F4E044 		bic	r4, r4, #28672
 774 0310 24F04004 		bic	r4, r4, #64
 775              	.LVL112:
 776 0314 48F28002 		movw	r2, #32896
 777 0318 2243     		orrs	r2, r2, r4
 778 031a 23F82520 		strh	r2, [r3, r5, lsl #2]	@ movhi
 779 031e E5E7     		b	.L35
 780              	.L39:
 781              		.align	2
 782              	.L38:
 783 0320 8F8FFFFF 		.word	-28785
 784              	.LBE33:
 785              		.cfi_endproc
 786              	.LFE138:
 788              		.section	.text.USB_DeactivateEndpoint,"ax",%progbits
 789              		.align	1
 790              		.global	USB_DeactivateEndpoint
 791              		.syntax unified
 792              		.thumb
 793              		.thumb_func
 794              		.fpu fpv5-sp-d16
 796              	USB_DeactivateEndpoint:
 797              	.LFB139:
 351:Drivers/STM32G4xx_HAL_Driver/Src/stm32g4xx_ll_usb.c **** 
 352:Drivers/STM32G4xx_HAL_Driver/Src/stm32g4xx_ll_usb.c **** /**
 353:Drivers/STM32G4xx_HAL_Driver/Src/stm32g4xx_ll_usb.c ****   * @brief  De-activate and de-initialize an endpoint
 354:Drivers/STM32G4xx_HAL_Driver/Src/stm32g4xx_ll_usb.c ****   * @param  USBx : Selected device
 355:Drivers/STM32G4xx_HAL_Driver/Src/stm32g4xx_ll_usb.c ****   * @param  ep: pointer to endpoint structure
 356:Drivers/STM32G4xx_HAL_Driver/Src/stm32g4xx_ll_usb.c ****   * @retval HAL status
 357:Drivers/STM32G4xx_HAL_Driver/Src/stm32g4xx_ll_usb.c ****   */
 358:Drivers/STM32G4xx_HAL_Driver/Src/stm32g4xx_ll_usb.c **** HAL_StatusTypeDef USB_DeactivateEndpoint(USB_TypeDef *USBx, USB_EPTypeDef *ep)
 359:Drivers/STM32G4xx_HAL_Driver/Src/stm32g4xx_ll_usb.c **** {
 798              		.loc 1 359 0
 799              		.cfi_startproc
 800              		@ args = 0, pretend = 0, frame = 0
 801              		@ frame_needed = 0, uses_anonymous_args = 0
 802              		@ link register save eliminated.
 803              	.LVL113:
 804 0000 10B4     		push	{r4}
 805              		.cfi_def_cfa_offset 4
 806              		.cfi_offset 4, -4
 360:Drivers/STM32G4xx_HAL_Driver/Src/stm32g4xx_ll_usb.c ****   if (ep->doublebuffer == 0U)
 807              		.loc 1 360 0
 808 0002 0B7B     		ldrb	r3, [r1, #12]	@ zero_extendqisi2
 809 0004 002B     		cmp	r3, #0
 810 0006 40D1     		bne	.L41
 361:Drivers/STM32G4xx_HAL_Driver/Src/stm32g4xx_ll_usb.c ****   {
 362:Drivers/STM32G4xx_HAL_Driver/Src/stm32g4xx_ll_usb.c ****     if (ep->is_in != 0U)
 811              		.loc 1 362 0
 812 0008 4B78     		ldrb	r3, [r1, #1]	@ zero_extendqisi2
 813 000a 03B3     		cbz	r3, .L42
 814              	.LBB34:
 363:Drivers/STM32G4xx_HAL_Driver/Src/stm32g4xx_ll_usb.c ****     {
 364:Drivers/STM32G4xx_HAL_Driver/Src/stm32g4xx_ll_usb.c ****       PCD_CLEAR_TX_DTOG(USBx, ep->num);
 815              		.loc 1 364 0
ARM GAS  /var/folders/17/j_dgbcc52q10y0jc3c_zbwd80000gn/T//ccdhwDmV.s 			page 22


 816 000c 0B78     		ldrb	r3, [r1]	@ zero_extendqisi2
 817 000e 30F82320 		ldrh	r2, [r0, r3, lsl #2]
 818              	.LVL114:
 819 0012 12F0400F 		tst	r2, #64
 820 0016 0AD0     		beq	.L43
 821              	.LBB35:
 822              		.loc 1 364 0 is_stmt 0 discriminator 1
 823 0018 30F82340 		ldrh	r4, [r0, r3, lsl #2]
 824 001c 24F4E044 		bic	r4, r4, #28672
 825 0020 24F07004 		bic	r4, r4, #112
 826              	.LVL115:
 827 0024 48F2C002 		movw	r2, #32960
 828              	.LVL116:
 829 0028 2243     		orrs	r2, r2, r4
 830 002a 20F82320 		strh	r2, [r0, r3, lsl #2]	@ movhi
 831              	.LVL117:
 832              	.L43:
 833              	.LBE35:
 834              	.LBE34:
 835              	.LBB36:
 365:Drivers/STM32G4xx_HAL_Driver/Src/stm32g4xx_ll_usb.c ****       /* Configure DISABLE status for the Endpoint*/
 366:Drivers/STM32G4xx_HAL_Driver/Src/stm32g4xx_ll_usb.c ****       PCD_SET_EP_TX_STATUS(USBx, ep->num, USB_EP_TX_DIS);
 836              		.loc 1 366 0 is_stmt 1
 837 002e 0978     		ldrb	r1, [r1]	@ zero_extendqisi2
 838              	.LVL118:
 839 0030 30F82120 		ldrh	r2, [r0, r1, lsl #2]
 840 0034 22F4E042 		bic	r2, r2, #28672
 841 0038 22F04002 		bic	r2, r2, #64
 842              	.LVL119:
 843 003c 48F28003 		movw	r3, #32896
 844 0040 1343     		orrs	r3, r3, r2
 845 0042 20F82130 		strh	r3, [r0, r1, lsl #2]	@ movhi
 846              	.LVL120:
 847              	.L44:
 848              	.LBE36:
 367:Drivers/STM32G4xx_HAL_Driver/Src/stm32g4xx_ll_usb.c ****     }
 368:Drivers/STM32G4xx_HAL_Driver/Src/stm32g4xx_ll_usb.c ****     else
 369:Drivers/STM32G4xx_HAL_Driver/Src/stm32g4xx_ll_usb.c ****     {
 370:Drivers/STM32G4xx_HAL_Driver/Src/stm32g4xx_ll_usb.c ****       PCD_CLEAR_RX_DTOG(USBx, ep->num);
 371:Drivers/STM32G4xx_HAL_Driver/Src/stm32g4xx_ll_usb.c ****       /* Configure DISABLE status for the Endpoint*/
 372:Drivers/STM32G4xx_HAL_Driver/Src/stm32g4xx_ll_usb.c ****       PCD_SET_EP_RX_STATUS(USBx, ep->num, USB_EP_RX_DIS);
 373:Drivers/STM32G4xx_HAL_Driver/Src/stm32g4xx_ll_usb.c ****     }
 374:Drivers/STM32G4xx_HAL_Driver/Src/stm32g4xx_ll_usb.c ****   }
 375:Drivers/STM32G4xx_HAL_Driver/Src/stm32g4xx_ll_usb.c ****   /*Double Buffer*/
 376:Drivers/STM32G4xx_HAL_Driver/Src/stm32g4xx_ll_usb.c ****   else
 377:Drivers/STM32G4xx_HAL_Driver/Src/stm32g4xx_ll_usb.c ****   {
 378:Drivers/STM32G4xx_HAL_Driver/Src/stm32g4xx_ll_usb.c ****     if (ep->is_in == 0U)
 379:Drivers/STM32G4xx_HAL_Driver/Src/stm32g4xx_ll_usb.c ****     {
 380:Drivers/STM32G4xx_HAL_Driver/Src/stm32g4xx_ll_usb.c ****       /* Clear the data toggle bits for the endpoint IN/OUT*/
 381:Drivers/STM32G4xx_HAL_Driver/Src/stm32g4xx_ll_usb.c ****       PCD_CLEAR_RX_DTOG(USBx, ep->num);
 382:Drivers/STM32G4xx_HAL_Driver/Src/stm32g4xx_ll_usb.c ****       PCD_CLEAR_TX_DTOG(USBx, ep->num);
 383:Drivers/STM32G4xx_HAL_Driver/Src/stm32g4xx_ll_usb.c **** 
 384:Drivers/STM32G4xx_HAL_Driver/Src/stm32g4xx_ll_usb.c ****       /* Reset value of the data toggle bits for the endpoint out*/
 385:Drivers/STM32G4xx_HAL_Driver/Src/stm32g4xx_ll_usb.c ****       PCD_TX_DTOG(USBx, ep->num);
 386:Drivers/STM32G4xx_HAL_Driver/Src/stm32g4xx_ll_usb.c **** 
 387:Drivers/STM32G4xx_HAL_Driver/Src/stm32g4xx_ll_usb.c ****       PCD_SET_EP_RX_STATUS(USBx, ep->num, USB_EP_RX_DIS);
 388:Drivers/STM32G4xx_HAL_Driver/Src/stm32g4xx_ll_usb.c ****       PCD_SET_EP_TX_STATUS(USBx, ep->num, USB_EP_TX_DIS);
ARM GAS  /var/folders/17/j_dgbcc52q10y0jc3c_zbwd80000gn/T//ccdhwDmV.s 			page 23


 389:Drivers/STM32G4xx_HAL_Driver/Src/stm32g4xx_ll_usb.c ****     }
 390:Drivers/STM32G4xx_HAL_Driver/Src/stm32g4xx_ll_usb.c ****     else
 391:Drivers/STM32G4xx_HAL_Driver/Src/stm32g4xx_ll_usb.c ****     {
 392:Drivers/STM32G4xx_HAL_Driver/Src/stm32g4xx_ll_usb.c ****       /* Clear the data toggle bits for the endpoint IN/OUT*/
 393:Drivers/STM32G4xx_HAL_Driver/Src/stm32g4xx_ll_usb.c ****       PCD_CLEAR_RX_DTOG(USBx, ep->num);
 394:Drivers/STM32G4xx_HAL_Driver/Src/stm32g4xx_ll_usb.c ****       PCD_CLEAR_TX_DTOG(USBx, ep->num);
 395:Drivers/STM32G4xx_HAL_Driver/Src/stm32g4xx_ll_usb.c ****       PCD_RX_DTOG(USBx, ep->num);
 396:Drivers/STM32G4xx_HAL_Driver/Src/stm32g4xx_ll_usb.c ****       /* Configure DISABLE status for the Endpoint*/
 397:Drivers/STM32G4xx_HAL_Driver/Src/stm32g4xx_ll_usb.c ****       PCD_SET_EP_TX_STATUS(USBx, ep->num, USB_EP_TX_DIS);
 398:Drivers/STM32G4xx_HAL_Driver/Src/stm32g4xx_ll_usb.c ****       PCD_SET_EP_RX_STATUS(USBx, ep->num, USB_EP_RX_DIS);
 399:Drivers/STM32G4xx_HAL_Driver/Src/stm32g4xx_ll_usb.c ****     }
 400:Drivers/STM32G4xx_HAL_Driver/Src/stm32g4xx_ll_usb.c ****   }
 401:Drivers/STM32G4xx_HAL_Driver/Src/stm32g4xx_ll_usb.c **** 
 402:Drivers/STM32G4xx_HAL_Driver/Src/stm32g4xx_ll_usb.c ****   return HAL_OK;
 403:Drivers/STM32G4xx_HAL_Driver/Src/stm32g4xx_ll_usb.c **** }
 849              		.loc 1 403 0
 850 0046 0020     		movs	r0, #0
 851              	.LVL121:
 852 0048 5DF8044B 		ldr	r4, [sp], #4
 853              		.cfi_remember_state
 854              		.cfi_restore 4
 855              		.cfi_def_cfa_offset 0
 856 004c 7047     		bx	lr
 857              	.LVL122:
 858              	.L42:
 859              		.cfi_restore_state
 860              	.LBB37:
 370:Drivers/STM32G4xx_HAL_Driver/Src/stm32g4xx_ll_usb.c ****       /* Configure DISABLE status for the Endpoint*/
 861              		.loc 1 370 0
 862 004e 0B78     		ldrb	r3, [r1]	@ zero_extendqisi2
 863 0050 30F82320 		ldrh	r2, [r0, r3, lsl #2]
 864              	.LVL123:
 865 0054 12F4804F 		tst	r2, #16384
 866 0058 0AD0     		beq	.L45
 867              	.LBB38:
 370:Drivers/STM32G4xx_HAL_Driver/Src/stm32g4xx_ll_usb.c ****       /* Configure DISABLE status for the Endpoint*/
 868              		.loc 1 370 0 is_stmt 0 discriminator 1
 869 005a 30F82340 		ldrh	r4, [r0, r3, lsl #2]
 870 005e 24F4E044 		bic	r4, r4, #28672
 871 0062 24F07004 		bic	r4, r4, #112
 872              	.LVL124:
 873 0066 4CF28002 		movw	r2, #49280
 874              	.LVL125:
 875 006a 2243     		orrs	r2, r2, r4
 876 006c 20F82320 		strh	r2, [r0, r3, lsl #2]	@ movhi
 877              	.LVL126:
 878              	.L45:
 879              	.LBE38:
 880              	.LBE37:
 881              	.LBB39:
 372:Drivers/STM32G4xx_HAL_Driver/Src/stm32g4xx_ll_usb.c ****     }
 882              		.loc 1 372 0 is_stmt 1
 883 0070 0978     		ldrb	r1, [r1]	@ zero_extendqisi2
 884              	.LVL127:
 885 0072 30F82120 		ldrh	r2, [r0, r1, lsl #2]
 886 0076 22F48042 		bic	r2, r2, #16384
 887 007a 22F07002 		bic	r2, r2, #112
ARM GAS  /var/folders/17/j_dgbcc52q10y0jc3c_zbwd80000gn/T//ccdhwDmV.s 			page 24


 888              	.LVL128:
 889 007e 48F28003 		movw	r3, #32896
 890 0082 1343     		orrs	r3, r3, r2
 891 0084 20F82130 		strh	r3, [r0, r1, lsl #2]	@ movhi
 892 0088 DDE7     		b	.L44
 893              	.LVL129:
 894              	.L41:
 895              	.LBE39:
 378:Drivers/STM32G4xx_HAL_Driver/Src/stm32g4xx_ll_usb.c ****     {
 896              		.loc 1 378 0
 897 008a 4B78     		ldrb	r3, [r1, #1]	@ zero_extendqisi2
 898 008c 002B     		cmp	r3, #0
 899 008e 44D1     		bne	.L46
 900              	.LBB40:
 381:Drivers/STM32G4xx_HAL_Driver/Src/stm32g4xx_ll_usb.c ****       PCD_CLEAR_TX_DTOG(USBx, ep->num);
 901              		.loc 1 381 0
 902 0090 0B78     		ldrb	r3, [r1]	@ zero_extendqisi2
 903 0092 30F82320 		ldrh	r2, [r0, r3, lsl #2]
 904              	.LVL130:
 905 0096 12F4804F 		tst	r2, #16384
 906 009a 0AD0     		beq	.L47
 907              	.LBB41:
 381:Drivers/STM32G4xx_HAL_Driver/Src/stm32g4xx_ll_usb.c ****       PCD_CLEAR_TX_DTOG(USBx, ep->num);
 908              		.loc 1 381 0 is_stmt 0 discriminator 1
 909 009c 30F82340 		ldrh	r4, [r0, r3, lsl #2]
 910 00a0 24F4E044 		bic	r4, r4, #28672
 911 00a4 24F07004 		bic	r4, r4, #112
 912              	.LVL131:
 913 00a8 4CF28002 		movw	r2, #49280
 914              	.LVL132:
 915 00ac 2243     		orrs	r2, r2, r4
 916 00ae 20F82320 		strh	r2, [r0, r3, lsl #2]	@ movhi
 917              	.LVL133:
 918              	.L47:
 919              	.LBE41:
 920              	.LBE40:
 921              	.LBB42:
 382:Drivers/STM32G4xx_HAL_Driver/Src/stm32g4xx_ll_usb.c **** 
 922              		.loc 1 382 0 is_stmt 1
 923 00b2 0B78     		ldrb	r3, [r1]	@ zero_extendqisi2
 924 00b4 30F82320 		ldrh	r2, [r0, r3, lsl #2]
 925              	.LVL134:
 926 00b8 12F0400F 		tst	r2, #64
 927 00bc 0AD0     		beq	.L48
 928              	.LBB43:
 382:Drivers/STM32G4xx_HAL_Driver/Src/stm32g4xx_ll_usb.c **** 
 929              		.loc 1 382 0 is_stmt 0 discriminator 1
 930 00be 30F82340 		ldrh	r4, [r0, r3, lsl #2]
 931 00c2 24F4E044 		bic	r4, r4, #28672
 932 00c6 24F07004 		bic	r4, r4, #112
 933              	.LVL135:
 934 00ca 48F2C002 		movw	r2, #32960
 935              	.LVL136:
 936 00ce 2243     		orrs	r2, r2, r4
 937 00d0 20F82320 		strh	r2, [r0, r3, lsl #2]	@ movhi
 938              	.LVL137:
 939              	.L48:
ARM GAS  /var/folders/17/j_dgbcc52q10y0jc3c_zbwd80000gn/T//ccdhwDmV.s 			page 25


 940              	.LBE43:
 941              	.LBE42:
 942              	.LBB44:
 385:Drivers/STM32G4xx_HAL_Driver/Src/stm32g4xx_ll_usb.c **** 
 943              		.loc 1 385 0 is_stmt 1
 944 00d4 0C78     		ldrb	r4, [r1]	@ zero_extendqisi2
 945 00d6 30F82420 		ldrh	r2, [r0, r4, lsl #2]
 946 00da 22F4E042 		bic	r2, r2, #28672
 947 00de 22F07002 		bic	r2, r2, #112
 948              	.LVL138:
 949 00e2 48F2C003 		movw	r3, #32960
 950 00e6 1343     		orrs	r3, r3, r2
 951 00e8 20F82430 		strh	r3, [r0, r4, lsl #2]	@ movhi
 952              	.LBE44:
 953              	.LBB45:
 387:Drivers/STM32G4xx_HAL_Driver/Src/stm32g4xx_ll_usb.c ****       PCD_SET_EP_TX_STATUS(USBx, ep->num, USB_EP_TX_DIS);
 954              		.loc 1 387 0
 955 00ec 0B78     		ldrb	r3, [r1]	@ zero_extendqisi2
 956 00ee 30F82320 		ldrh	r2, [r0, r3, lsl #2]
 957              	.LVL139:
 958 00f2 22F48042 		bic	r2, r2, #16384
 959 00f6 22F07002 		bic	r2, r2, #112
 960              	.LVL140:
 961 00fa 48F28004 		movw	r4, #32896
 962 00fe 2243     		orrs	r2, r2, r4
 963              	.LVL141:
 964 0100 20F82320 		strh	r2, [r0, r3, lsl #2]	@ movhi
 965              	.LBE45:
 966              	.LBB46:
 388:Drivers/STM32G4xx_HAL_Driver/Src/stm32g4xx_ll_usb.c ****     }
 967              		.loc 1 388 0
 968 0104 0A78     		ldrb	r2, [r1]	@ zero_extendqisi2
 969 0106 30F82230 		ldrh	r3, [r0, r2, lsl #2]
 970 010a 23F4E043 		bic	r3, r3, #28672
 971 010e 23F04003 		bic	r3, r3, #64
 972              	.LVL142:
 973 0112 2343     		orrs	r3, r3, r4
 974              	.LVL143:
 975 0114 20F82230 		strh	r3, [r0, r2, lsl #2]	@ movhi
 976              	.LBE46:
 977 0118 95E7     		b	.L44
 978              	.L46:
 979              	.LBB47:
 393:Drivers/STM32G4xx_HAL_Driver/Src/stm32g4xx_ll_usb.c ****       PCD_CLEAR_TX_DTOG(USBx, ep->num);
 980              		.loc 1 393 0
 981 011a 0B78     		ldrb	r3, [r1]	@ zero_extendqisi2
 982 011c 30F82320 		ldrh	r2, [r0, r3, lsl #2]
 983              	.LVL144:
 984 0120 12F4804F 		tst	r2, #16384
 985 0124 0AD0     		beq	.L49
 986              	.LBB48:
 393:Drivers/STM32G4xx_HAL_Driver/Src/stm32g4xx_ll_usb.c ****       PCD_CLEAR_TX_DTOG(USBx, ep->num);
 987              		.loc 1 393 0 is_stmt 0 discriminator 1
 988 0126 30F82340 		ldrh	r4, [r0, r3, lsl #2]
 989 012a 24F4E044 		bic	r4, r4, #28672
 990 012e 24F07004 		bic	r4, r4, #112
 991              	.LVL145:
ARM GAS  /var/folders/17/j_dgbcc52q10y0jc3c_zbwd80000gn/T//ccdhwDmV.s 			page 26


 992 0132 4CF28002 		movw	r2, #49280
 993              	.LVL146:
 994 0136 2243     		orrs	r2, r2, r4
 995 0138 20F82320 		strh	r2, [r0, r3, lsl #2]	@ movhi
 996              	.LVL147:
 997              	.L49:
 998              	.LBE48:
 999              	.LBE47:
 1000              	.LBB49:
 394:Drivers/STM32G4xx_HAL_Driver/Src/stm32g4xx_ll_usb.c ****       PCD_RX_DTOG(USBx, ep->num);
 1001              		.loc 1 394 0 is_stmt 1
 1002 013c 0B78     		ldrb	r3, [r1]	@ zero_extendqisi2
 1003 013e 30F82320 		ldrh	r2, [r0, r3, lsl #2]
 1004              	.LVL148:
 1005 0142 12F0400F 		tst	r2, #64
 1006 0146 0AD0     		beq	.L50
 1007              	.LBB50:
 394:Drivers/STM32G4xx_HAL_Driver/Src/stm32g4xx_ll_usb.c ****       PCD_RX_DTOG(USBx, ep->num);
 1008              		.loc 1 394 0 is_stmt 0 discriminator 1
 1009 0148 30F82340 		ldrh	r4, [r0, r3, lsl #2]
 1010 014c 24F4E044 		bic	r4, r4, #28672
 1011 0150 24F07004 		bic	r4, r4, #112
 1012              	.LVL149:
 1013 0154 48F2C002 		movw	r2, #32960
 1014              	.LVL150:
 1015 0158 2243     		orrs	r2, r2, r4
 1016 015a 20F82320 		strh	r2, [r0, r3, lsl #2]	@ movhi
 1017              	.LVL151:
 1018              	.L50:
 1019              	.LBE50:
 1020              	.LBE49:
 1021              	.LBB51:
 395:Drivers/STM32G4xx_HAL_Driver/Src/stm32g4xx_ll_usb.c ****       /* Configure DISABLE status for the Endpoint*/
 1022              		.loc 1 395 0 is_stmt 1
 1023 015e 0C78     		ldrb	r4, [r1]	@ zero_extendqisi2
 1024 0160 30F82420 		ldrh	r2, [r0, r4, lsl #2]
 1025 0164 22F4E042 		bic	r2, r2, #28672
 1026 0168 22F07002 		bic	r2, r2, #112
 1027              	.LVL152:
 1028 016c 4CF28003 		movw	r3, #49280
 1029 0170 1343     		orrs	r3, r3, r2
 1030 0172 20F82430 		strh	r3, [r0, r4, lsl #2]	@ movhi
 1031              	.LBE51:
 1032              	.LBB52:
 397:Drivers/STM32G4xx_HAL_Driver/Src/stm32g4xx_ll_usb.c ****       PCD_SET_EP_RX_STATUS(USBx, ep->num, USB_EP_RX_DIS);
 1033              		.loc 1 397 0
 1034 0176 0B78     		ldrb	r3, [r1]	@ zero_extendqisi2
 1035 0178 30F82320 		ldrh	r2, [r0, r3, lsl #2]
 1036              	.LVL153:
 1037 017c 22F4E042 		bic	r2, r2, #28672
 1038 0180 22F04002 		bic	r2, r2, #64
 1039              	.LVL154:
 1040 0184 48F28004 		movw	r4, #32896
 1041 0188 2243     		orrs	r2, r2, r4
 1042              	.LVL155:
 1043 018a 20F82320 		strh	r2, [r0, r3, lsl #2]	@ movhi
 1044              	.LBE52:
ARM GAS  /var/folders/17/j_dgbcc52q10y0jc3c_zbwd80000gn/T//ccdhwDmV.s 			page 27


 1045              	.LBB53:
 398:Drivers/STM32G4xx_HAL_Driver/Src/stm32g4xx_ll_usb.c ****     }
 1046              		.loc 1 398 0
 1047 018e 0A78     		ldrb	r2, [r1]	@ zero_extendqisi2
 1048 0190 30F82230 		ldrh	r3, [r0, r2, lsl #2]
 1049 0194 23F48043 		bic	r3, r3, #16384
 1050 0198 23F07003 		bic	r3, r3, #112
 1051              	.LVL156:
 1052 019c 2343     		orrs	r3, r3, r4
 1053              	.LVL157:
 1054 019e 20F82230 		strh	r3, [r0, r2, lsl #2]	@ movhi
 1055 01a2 50E7     		b	.L44
 1056              	.LBE53:
 1057              		.cfi_endproc
 1058              	.LFE139:
 1060              		.section	.text.USB_WritePacket,"ax",%progbits
 1061              		.align	1
 1062              		.global	USB_WritePacket
 1063              		.syntax unified
 1064              		.thumb
 1065              		.thumb_func
 1066              		.fpu fpv5-sp-d16
 1068              	USB_WritePacket:
 1069              	.LFB141:
 404:Drivers/STM32G4xx_HAL_Driver/Src/stm32g4xx_ll_usb.c **** 
 405:Drivers/STM32G4xx_HAL_Driver/Src/stm32g4xx_ll_usb.c **** /**
 406:Drivers/STM32G4xx_HAL_Driver/Src/stm32g4xx_ll_usb.c ****   * @brief  USB_EPStartXfer : setup and starts a transfer over an EP
 407:Drivers/STM32G4xx_HAL_Driver/Src/stm32g4xx_ll_usb.c ****   * @param  USBx : Selected device
 408:Drivers/STM32G4xx_HAL_Driver/Src/stm32g4xx_ll_usb.c ****   * @param  ep: pointer to endpoint structure
 409:Drivers/STM32G4xx_HAL_Driver/Src/stm32g4xx_ll_usb.c ****   * @retval HAL status
 410:Drivers/STM32G4xx_HAL_Driver/Src/stm32g4xx_ll_usb.c ****   */
 411:Drivers/STM32G4xx_HAL_Driver/Src/stm32g4xx_ll_usb.c **** HAL_StatusTypeDef USB_EPStartXfer(USB_TypeDef *USBx, USB_EPTypeDef *ep)
 412:Drivers/STM32G4xx_HAL_Driver/Src/stm32g4xx_ll_usb.c **** {
 413:Drivers/STM32G4xx_HAL_Driver/Src/stm32g4xx_ll_usb.c ****   uint16_t pmabuffer;
 414:Drivers/STM32G4xx_HAL_Driver/Src/stm32g4xx_ll_usb.c ****   uint32_t len;
 415:Drivers/STM32G4xx_HAL_Driver/Src/stm32g4xx_ll_usb.c **** 
 416:Drivers/STM32G4xx_HAL_Driver/Src/stm32g4xx_ll_usb.c ****   /* IN endpoint */
 417:Drivers/STM32G4xx_HAL_Driver/Src/stm32g4xx_ll_usb.c ****   if (ep->is_in == 1U)
 418:Drivers/STM32G4xx_HAL_Driver/Src/stm32g4xx_ll_usb.c ****   {
 419:Drivers/STM32G4xx_HAL_Driver/Src/stm32g4xx_ll_usb.c ****     /*Multi packet transfer*/
 420:Drivers/STM32G4xx_HAL_Driver/Src/stm32g4xx_ll_usb.c ****     if (ep->xfer_len > ep->maxpacket)
 421:Drivers/STM32G4xx_HAL_Driver/Src/stm32g4xx_ll_usb.c ****     {
 422:Drivers/STM32G4xx_HAL_Driver/Src/stm32g4xx_ll_usb.c ****       len = ep->maxpacket;
 423:Drivers/STM32G4xx_HAL_Driver/Src/stm32g4xx_ll_usb.c ****       ep->xfer_len -= len;
 424:Drivers/STM32G4xx_HAL_Driver/Src/stm32g4xx_ll_usb.c ****     }
 425:Drivers/STM32G4xx_HAL_Driver/Src/stm32g4xx_ll_usb.c ****     else
 426:Drivers/STM32G4xx_HAL_Driver/Src/stm32g4xx_ll_usb.c ****     {
 427:Drivers/STM32G4xx_HAL_Driver/Src/stm32g4xx_ll_usb.c ****       len = ep->xfer_len;
 428:Drivers/STM32G4xx_HAL_Driver/Src/stm32g4xx_ll_usb.c ****       ep->xfer_len = 0U;
 429:Drivers/STM32G4xx_HAL_Driver/Src/stm32g4xx_ll_usb.c ****     }
 430:Drivers/STM32G4xx_HAL_Driver/Src/stm32g4xx_ll_usb.c **** 
 431:Drivers/STM32G4xx_HAL_Driver/Src/stm32g4xx_ll_usb.c ****     /* configure and validate Tx endpoint */
 432:Drivers/STM32G4xx_HAL_Driver/Src/stm32g4xx_ll_usb.c ****     if (ep->doublebuffer == 0U)
 433:Drivers/STM32G4xx_HAL_Driver/Src/stm32g4xx_ll_usb.c ****     {
 434:Drivers/STM32G4xx_HAL_Driver/Src/stm32g4xx_ll_usb.c ****       USB_WritePMA(USBx, ep->xfer_buff, ep->pmaadress, (uint16_t)len);
 435:Drivers/STM32G4xx_HAL_Driver/Src/stm32g4xx_ll_usb.c ****       PCD_SET_EP_TX_CNT(USBx, ep->num, len);
 436:Drivers/STM32G4xx_HAL_Driver/Src/stm32g4xx_ll_usb.c ****     }
ARM GAS  /var/folders/17/j_dgbcc52q10y0jc3c_zbwd80000gn/T//ccdhwDmV.s 			page 28


 437:Drivers/STM32G4xx_HAL_Driver/Src/stm32g4xx_ll_usb.c ****     else
 438:Drivers/STM32G4xx_HAL_Driver/Src/stm32g4xx_ll_usb.c ****     {
 439:Drivers/STM32G4xx_HAL_Driver/Src/stm32g4xx_ll_usb.c ****       /* Write the data to the USB endpoint */
 440:Drivers/STM32G4xx_HAL_Driver/Src/stm32g4xx_ll_usb.c ****       if ((PCD_GET_ENDPOINT(USBx, ep->num) & USB_EP_DTOG_TX) != 0U)
 441:Drivers/STM32G4xx_HAL_Driver/Src/stm32g4xx_ll_usb.c ****       {
 442:Drivers/STM32G4xx_HAL_Driver/Src/stm32g4xx_ll_usb.c ****         /* Set the Double buffer counter for pmabuffer1 */
 443:Drivers/STM32G4xx_HAL_Driver/Src/stm32g4xx_ll_usb.c ****         PCD_SET_EP_DBUF1_CNT(USBx, ep->num, ep->is_in, len);
 444:Drivers/STM32G4xx_HAL_Driver/Src/stm32g4xx_ll_usb.c ****         pmabuffer = ep->pmaaddr1;
 445:Drivers/STM32G4xx_HAL_Driver/Src/stm32g4xx_ll_usb.c ****       }
 446:Drivers/STM32G4xx_HAL_Driver/Src/stm32g4xx_ll_usb.c ****       else
 447:Drivers/STM32G4xx_HAL_Driver/Src/stm32g4xx_ll_usb.c ****       {
 448:Drivers/STM32G4xx_HAL_Driver/Src/stm32g4xx_ll_usb.c ****         /* Set the Double buffer counter for pmabuffer0 */
 449:Drivers/STM32G4xx_HAL_Driver/Src/stm32g4xx_ll_usb.c ****         PCD_SET_EP_DBUF0_CNT(USBx, ep->num, ep->is_in, len);
 450:Drivers/STM32G4xx_HAL_Driver/Src/stm32g4xx_ll_usb.c ****         pmabuffer = ep->pmaaddr0;
 451:Drivers/STM32G4xx_HAL_Driver/Src/stm32g4xx_ll_usb.c ****       }
 452:Drivers/STM32G4xx_HAL_Driver/Src/stm32g4xx_ll_usb.c ****       USB_WritePMA(USBx, ep->xfer_buff, pmabuffer, (uint16_t)len);
 453:Drivers/STM32G4xx_HAL_Driver/Src/stm32g4xx_ll_usb.c ****       PCD_FreeUserBuffer(USBx, ep->num, ep->is_in);
 454:Drivers/STM32G4xx_HAL_Driver/Src/stm32g4xx_ll_usb.c ****     }
 455:Drivers/STM32G4xx_HAL_Driver/Src/stm32g4xx_ll_usb.c **** 
 456:Drivers/STM32G4xx_HAL_Driver/Src/stm32g4xx_ll_usb.c ****     PCD_SET_EP_TX_STATUS(USBx, ep->num, USB_EP_TX_VALID);
 457:Drivers/STM32G4xx_HAL_Driver/Src/stm32g4xx_ll_usb.c ****   }
 458:Drivers/STM32G4xx_HAL_Driver/Src/stm32g4xx_ll_usb.c ****   else /* OUT endpoint */
 459:Drivers/STM32G4xx_HAL_Driver/Src/stm32g4xx_ll_usb.c ****   {
 460:Drivers/STM32G4xx_HAL_Driver/Src/stm32g4xx_ll_usb.c ****     /* Multi packet transfer*/
 461:Drivers/STM32G4xx_HAL_Driver/Src/stm32g4xx_ll_usb.c ****     if (ep->xfer_len > ep->maxpacket)
 462:Drivers/STM32G4xx_HAL_Driver/Src/stm32g4xx_ll_usb.c ****     {
 463:Drivers/STM32G4xx_HAL_Driver/Src/stm32g4xx_ll_usb.c ****       len = ep->maxpacket;
 464:Drivers/STM32G4xx_HAL_Driver/Src/stm32g4xx_ll_usb.c ****       ep->xfer_len -= len;
 465:Drivers/STM32G4xx_HAL_Driver/Src/stm32g4xx_ll_usb.c ****     }
 466:Drivers/STM32G4xx_HAL_Driver/Src/stm32g4xx_ll_usb.c ****     else
 467:Drivers/STM32G4xx_HAL_Driver/Src/stm32g4xx_ll_usb.c ****     {
 468:Drivers/STM32G4xx_HAL_Driver/Src/stm32g4xx_ll_usb.c ****       len = ep->xfer_len;
 469:Drivers/STM32G4xx_HAL_Driver/Src/stm32g4xx_ll_usb.c ****       ep->xfer_len = 0U;
 470:Drivers/STM32G4xx_HAL_Driver/Src/stm32g4xx_ll_usb.c ****     }
 471:Drivers/STM32G4xx_HAL_Driver/Src/stm32g4xx_ll_usb.c **** 
 472:Drivers/STM32G4xx_HAL_Driver/Src/stm32g4xx_ll_usb.c ****     /* configure and validate Rx endpoint */
 473:Drivers/STM32G4xx_HAL_Driver/Src/stm32g4xx_ll_usb.c ****     if (ep->doublebuffer == 0U)
 474:Drivers/STM32G4xx_HAL_Driver/Src/stm32g4xx_ll_usb.c ****     {
 475:Drivers/STM32G4xx_HAL_Driver/Src/stm32g4xx_ll_usb.c ****       /*Set RX buffer count*/
 476:Drivers/STM32G4xx_HAL_Driver/Src/stm32g4xx_ll_usb.c ****       PCD_SET_EP_RX_CNT(USBx, ep->num, len);
 477:Drivers/STM32G4xx_HAL_Driver/Src/stm32g4xx_ll_usb.c ****     }
 478:Drivers/STM32G4xx_HAL_Driver/Src/stm32g4xx_ll_usb.c ****     else
 479:Drivers/STM32G4xx_HAL_Driver/Src/stm32g4xx_ll_usb.c ****     {
 480:Drivers/STM32G4xx_HAL_Driver/Src/stm32g4xx_ll_usb.c ****       /*Set the Double buffer counter*/
 481:Drivers/STM32G4xx_HAL_Driver/Src/stm32g4xx_ll_usb.c ****       PCD_SET_EP_DBUF_CNT(USBx, ep->num, ep->is_in, len);
 482:Drivers/STM32G4xx_HAL_Driver/Src/stm32g4xx_ll_usb.c ****     }
 483:Drivers/STM32G4xx_HAL_Driver/Src/stm32g4xx_ll_usb.c **** 
 484:Drivers/STM32G4xx_HAL_Driver/Src/stm32g4xx_ll_usb.c ****     PCD_SET_EP_RX_STATUS(USBx, ep->num, USB_EP_RX_VALID);
 485:Drivers/STM32G4xx_HAL_Driver/Src/stm32g4xx_ll_usb.c ****   }
 486:Drivers/STM32G4xx_HAL_Driver/Src/stm32g4xx_ll_usb.c **** 
 487:Drivers/STM32G4xx_HAL_Driver/Src/stm32g4xx_ll_usb.c ****   return HAL_OK;
 488:Drivers/STM32G4xx_HAL_Driver/Src/stm32g4xx_ll_usb.c **** }
 489:Drivers/STM32G4xx_HAL_Driver/Src/stm32g4xx_ll_usb.c **** 
 490:Drivers/STM32G4xx_HAL_Driver/Src/stm32g4xx_ll_usb.c **** /**
 491:Drivers/STM32G4xx_HAL_Driver/Src/stm32g4xx_ll_usb.c ****   * @brief  USB_WritePacket : Writes a packet into the Tx FIFO associated
 492:Drivers/STM32G4xx_HAL_Driver/Src/stm32g4xx_ll_usb.c ****   *         with the EP/channel
 493:Drivers/STM32G4xx_HAL_Driver/Src/stm32g4xx_ll_usb.c ****   * @param  USBx : Selected device
ARM GAS  /var/folders/17/j_dgbcc52q10y0jc3c_zbwd80000gn/T//ccdhwDmV.s 			page 29


 494:Drivers/STM32G4xx_HAL_Driver/Src/stm32g4xx_ll_usb.c ****   * @param  src :  pointer to source buffer
 495:Drivers/STM32G4xx_HAL_Driver/Src/stm32g4xx_ll_usb.c ****   * @param  ch_ep_num : endpoint or host channel number
 496:Drivers/STM32G4xx_HAL_Driver/Src/stm32g4xx_ll_usb.c ****   * @param  len : Number of bytes to write
 497:Drivers/STM32G4xx_HAL_Driver/Src/stm32g4xx_ll_usb.c ****   * @retval HAL status
 498:Drivers/STM32G4xx_HAL_Driver/Src/stm32g4xx_ll_usb.c ****   */
 499:Drivers/STM32G4xx_HAL_Driver/Src/stm32g4xx_ll_usb.c **** HAL_StatusTypeDef USB_WritePacket(USB_TypeDef *USBx, uint8_t *src, uint8_t ch_ep_num, uint16_t len)
 500:Drivers/STM32G4xx_HAL_Driver/Src/stm32g4xx_ll_usb.c **** {
 1070              		.loc 1 500 0
 1071              		.cfi_startproc
 1072              		@ args = 0, pretend = 0, frame = 0
 1073              		@ frame_needed = 0, uses_anonymous_args = 0
 1074              		@ link register save eliminated.
 1075              	.LVL158:
 501:Drivers/STM32G4xx_HAL_Driver/Src/stm32g4xx_ll_usb.c ****   /* Prevent unused argument(s) compilation warning */
 502:Drivers/STM32G4xx_HAL_Driver/Src/stm32g4xx_ll_usb.c ****   UNUSED(USBx);
 503:Drivers/STM32G4xx_HAL_Driver/Src/stm32g4xx_ll_usb.c ****   UNUSED(src);
 504:Drivers/STM32G4xx_HAL_Driver/Src/stm32g4xx_ll_usb.c ****   UNUSED(ch_ep_num);
 505:Drivers/STM32G4xx_HAL_Driver/Src/stm32g4xx_ll_usb.c ****   UNUSED(len);
 506:Drivers/STM32G4xx_HAL_Driver/Src/stm32g4xx_ll_usb.c ****   /* NOTE : - This function is not required by USB Device FS peripheral, it is used
 507:Drivers/STM32G4xx_HAL_Driver/Src/stm32g4xx_ll_usb.c ****               only by USB OTG FS peripheral.
 508:Drivers/STM32G4xx_HAL_Driver/Src/stm32g4xx_ll_usb.c ****             - This function is added to ensure compatibility across platforms.
 509:Drivers/STM32G4xx_HAL_Driver/Src/stm32g4xx_ll_usb.c ****    */
 510:Drivers/STM32G4xx_HAL_Driver/Src/stm32g4xx_ll_usb.c ****   return HAL_OK;
 511:Drivers/STM32G4xx_HAL_Driver/Src/stm32g4xx_ll_usb.c **** }
 1076              		.loc 1 511 0
 1077 0000 0020     		movs	r0, #0
 1078              	.LVL159:
 1079 0002 7047     		bx	lr
 1080              		.cfi_endproc
 1081              	.LFE141:
 1083              		.section	.text.USB_ReadPacket,"ax",%progbits
 1084              		.align	1
 1085              		.global	USB_ReadPacket
 1086              		.syntax unified
 1087              		.thumb
 1088              		.thumb_func
 1089              		.fpu fpv5-sp-d16
 1091              	USB_ReadPacket:
 1092              	.LFB142:
 512:Drivers/STM32G4xx_HAL_Driver/Src/stm32g4xx_ll_usb.c **** 
 513:Drivers/STM32G4xx_HAL_Driver/Src/stm32g4xx_ll_usb.c **** /**
 514:Drivers/STM32G4xx_HAL_Driver/Src/stm32g4xx_ll_usb.c ****   * @brief  USB_ReadPacket : read a packet from the Tx FIFO associated
 515:Drivers/STM32G4xx_HAL_Driver/Src/stm32g4xx_ll_usb.c ****   *         with the EP/channel
 516:Drivers/STM32G4xx_HAL_Driver/Src/stm32g4xx_ll_usb.c ****   * @param  USBx : Selected device
 517:Drivers/STM32G4xx_HAL_Driver/Src/stm32g4xx_ll_usb.c ****   * @param  dest : destination pointer
 518:Drivers/STM32G4xx_HAL_Driver/Src/stm32g4xx_ll_usb.c ****   * @param  len : Number of bytes to read
 519:Drivers/STM32G4xx_HAL_Driver/Src/stm32g4xx_ll_usb.c ****   * @retval pointer to destination buffer
 520:Drivers/STM32G4xx_HAL_Driver/Src/stm32g4xx_ll_usb.c ****   */
 521:Drivers/STM32G4xx_HAL_Driver/Src/stm32g4xx_ll_usb.c **** void *USB_ReadPacket(USB_TypeDef *USBx, uint8_t *dest, uint16_t len)
 522:Drivers/STM32G4xx_HAL_Driver/Src/stm32g4xx_ll_usb.c **** {
 1093              		.loc 1 522 0
 1094              		.cfi_startproc
 1095              		@ args = 0, pretend = 0, frame = 0
 1096              		@ frame_needed = 0, uses_anonymous_args = 0
 1097              		@ link register save eliminated.
 1098              	.LVL160:
 523:Drivers/STM32G4xx_HAL_Driver/Src/stm32g4xx_ll_usb.c ****   /* Prevent unused argument(s) compilation warning */
ARM GAS  /var/folders/17/j_dgbcc52q10y0jc3c_zbwd80000gn/T//ccdhwDmV.s 			page 30


 524:Drivers/STM32G4xx_HAL_Driver/Src/stm32g4xx_ll_usb.c ****   UNUSED(USBx);
 525:Drivers/STM32G4xx_HAL_Driver/Src/stm32g4xx_ll_usb.c ****   UNUSED(dest);
 526:Drivers/STM32G4xx_HAL_Driver/Src/stm32g4xx_ll_usb.c ****   UNUSED(len);
 527:Drivers/STM32G4xx_HAL_Driver/Src/stm32g4xx_ll_usb.c ****   /* NOTE : - This function is not required by USB Device FS peripheral, it is used
 528:Drivers/STM32G4xx_HAL_Driver/Src/stm32g4xx_ll_usb.c ****               only by USB OTG FS peripheral.
 529:Drivers/STM32G4xx_HAL_Driver/Src/stm32g4xx_ll_usb.c ****             - This function is added to ensure compatibility across platforms.
 530:Drivers/STM32G4xx_HAL_Driver/Src/stm32g4xx_ll_usb.c ****    */
 531:Drivers/STM32G4xx_HAL_Driver/Src/stm32g4xx_ll_usb.c ****   return ((void *)NULL);
 532:Drivers/STM32G4xx_HAL_Driver/Src/stm32g4xx_ll_usb.c **** }
 1099              		.loc 1 532 0
 1100 0000 0020     		movs	r0, #0
 1101              	.LVL161:
 1102 0002 7047     		bx	lr
 1103              		.cfi_endproc
 1104              	.LFE142:
 1106              		.section	.text.USB_EPSetStall,"ax",%progbits
 1107              		.align	1
 1108              		.global	USB_EPSetStall
 1109              		.syntax unified
 1110              		.thumb
 1111              		.thumb_func
 1112              		.fpu fpv5-sp-d16
 1114              	USB_EPSetStall:
 1115              	.LFB143:
 533:Drivers/STM32G4xx_HAL_Driver/Src/stm32g4xx_ll_usb.c **** 
 534:Drivers/STM32G4xx_HAL_Driver/Src/stm32g4xx_ll_usb.c **** /**
 535:Drivers/STM32G4xx_HAL_Driver/Src/stm32g4xx_ll_usb.c ****   * @brief  USB_EPSetStall : set a stall condition over an EP
 536:Drivers/STM32G4xx_HAL_Driver/Src/stm32g4xx_ll_usb.c ****   * @param  USBx : Selected device
 537:Drivers/STM32G4xx_HAL_Driver/Src/stm32g4xx_ll_usb.c ****   * @param  ep: pointer to endpoint structure
 538:Drivers/STM32G4xx_HAL_Driver/Src/stm32g4xx_ll_usb.c ****   * @retval HAL status
 539:Drivers/STM32G4xx_HAL_Driver/Src/stm32g4xx_ll_usb.c ****   */
 540:Drivers/STM32G4xx_HAL_Driver/Src/stm32g4xx_ll_usb.c **** HAL_StatusTypeDef USB_EPSetStall(USB_TypeDef *USBx, USB_EPTypeDef *ep)
 541:Drivers/STM32G4xx_HAL_Driver/Src/stm32g4xx_ll_usb.c **** {
 1116              		.loc 1 541 0
 1117              		.cfi_startproc
 1118              		@ args = 0, pretend = 0, frame = 0
 1119              		@ frame_needed = 0, uses_anonymous_args = 0
 1120              		@ link register save eliminated.
 1121              	.LVL162:
 542:Drivers/STM32G4xx_HAL_Driver/Src/stm32g4xx_ll_usb.c ****   if (ep->is_in != 0U)
 1122              		.loc 1 542 0
 1123 0000 4B78     		ldrb	r3, [r1, #1]	@ zero_extendqisi2
 1124 0002 7BB9     		cbnz	r3, .L57
 1125              	.LBB54:
 543:Drivers/STM32G4xx_HAL_Driver/Src/stm32g4xx_ll_usb.c ****   {
 544:Drivers/STM32G4xx_HAL_Driver/Src/stm32g4xx_ll_usb.c ****     PCD_SET_EP_TX_STATUS(USBx, ep->num, USB_EP_TX_STALL);
 545:Drivers/STM32G4xx_HAL_Driver/Src/stm32g4xx_ll_usb.c ****   }
 546:Drivers/STM32G4xx_HAL_Driver/Src/stm32g4xx_ll_usb.c ****   else
 547:Drivers/STM32G4xx_HAL_Driver/Src/stm32g4xx_ll_usb.c ****   {
 548:Drivers/STM32G4xx_HAL_Driver/Src/stm32g4xx_ll_usb.c ****     PCD_SET_EP_RX_STATUS(USBx, ep->num, USB_EP_RX_STALL);
 1126              		.loc 1 548 0
 1127 0004 0978     		ldrb	r1, [r1]	@ zero_extendqisi2
 1128              	.LVL163:
 1129 0006 30F82130 		ldrh	r3, [r0, r1, lsl #2]
 1130 000a 23F48043 		bic	r3, r3, #16384
 1131 000e 23F07003 		bic	r3, r3, #112
 1132              	.LVL164:
ARM GAS  /var/folders/17/j_dgbcc52q10y0jc3c_zbwd80000gn/T//ccdhwDmV.s 			page 31


 1133 0012 83F48053 		eor	r3, r3, #4096
 1134              	.LVL165:
 1135 0016 48F28002 		movw	r2, #32896
 1136 001a 1A43     		orrs	r2, r2, r3
 1137 001c 20F82120 		strh	r2, [r0, r1, lsl #2]	@ movhi
 1138              	.LVL166:
 1139              	.L56:
 1140              	.LBE54:
 549:Drivers/STM32G4xx_HAL_Driver/Src/stm32g4xx_ll_usb.c ****   }
 550:Drivers/STM32G4xx_HAL_Driver/Src/stm32g4xx_ll_usb.c **** 
 551:Drivers/STM32G4xx_HAL_Driver/Src/stm32g4xx_ll_usb.c ****   return HAL_OK;
 552:Drivers/STM32G4xx_HAL_Driver/Src/stm32g4xx_ll_usb.c **** }
 1141              		.loc 1 552 0
 1142 0020 0020     		movs	r0, #0
 1143              	.LVL167:
 1144 0022 7047     		bx	lr
 1145              	.LVL168:
 1146              	.L57:
 1147              	.LBB55:
 544:Drivers/STM32G4xx_HAL_Driver/Src/stm32g4xx_ll_usb.c ****   }
 1148              		.loc 1 544 0
 1149 0024 0978     		ldrb	r1, [r1]	@ zero_extendqisi2
 1150              	.LVL169:
 1151 0026 30F82130 		ldrh	r3, [r0, r1, lsl #2]
 1152 002a 23F4E043 		bic	r3, r3, #28672
 1153 002e 23F04003 		bic	r3, r3, #64
 1154              	.LVL170:
 1155 0032 83F01003 		eor	r3, r3, #16
 1156              	.LVL171:
 1157 0036 48F28002 		movw	r2, #32896
 1158 003a 1A43     		orrs	r2, r2, r3
 1159 003c 20F82120 		strh	r2, [r0, r1, lsl #2]	@ movhi
 1160              	.LBE55:
 1161 0040 EEE7     		b	.L56
 1162              		.cfi_endproc
 1163              	.LFE143:
 1165              		.section	.text.USB_EPClearStall,"ax",%progbits
 1166              		.align	1
 1167              		.global	USB_EPClearStall
 1168              		.syntax unified
 1169              		.thumb
 1170              		.thumb_func
 1171              		.fpu fpv5-sp-d16
 1173              	USB_EPClearStall:
 1174              	.LFB144:
 553:Drivers/STM32G4xx_HAL_Driver/Src/stm32g4xx_ll_usb.c **** 
 554:Drivers/STM32G4xx_HAL_Driver/Src/stm32g4xx_ll_usb.c **** /**
 555:Drivers/STM32G4xx_HAL_Driver/Src/stm32g4xx_ll_usb.c ****   * @brief  USB_EPClearStall : Clear a stall condition over an EP
 556:Drivers/STM32G4xx_HAL_Driver/Src/stm32g4xx_ll_usb.c ****   * @param  USBx : Selected device
 557:Drivers/STM32G4xx_HAL_Driver/Src/stm32g4xx_ll_usb.c ****   * @param  ep: pointer to endpoint structure
 558:Drivers/STM32G4xx_HAL_Driver/Src/stm32g4xx_ll_usb.c ****   * @retval HAL status
 559:Drivers/STM32G4xx_HAL_Driver/Src/stm32g4xx_ll_usb.c ****   */
 560:Drivers/STM32G4xx_HAL_Driver/Src/stm32g4xx_ll_usb.c **** HAL_StatusTypeDef USB_EPClearStall(USB_TypeDef *USBx, USB_EPTypeDef *ep)
 561:Drivers/STM32G4xx_HAL_Driver/Src/stm32g4xx_ll_usb.c **** {
 1175              		.loc 1 561 0
 1176              		.cfi_startproc
 1177              		@ args = 0, pretend = 0, frame = 0
ARM GAS  /var/folders/17/j_dgbcc52q10y0jc3c_zbwd80000gn/T//ccdhwDmV.s 			page 32


 1178              		@ frame_needed = 0, uses_anonymous_args = 0
 1179              		@ link register save eliminated.
 1180              	.LVL172:
 562:Drivers/STM32G4xx_HAL_Driver/Src/stm32g4xx_ll_usb.c ****   if (ep->doublebuffer == 0U)
 1181              		.loc 1 562 0
 1182 0000 0B7B     		ldrb	r3, [r1, #12]	@ zero_extendqisi2
 1183 0002 002B     		cmp	r3, #0
 1184 0004 48D1     		bne	.L64
 561:Drivers/STM32G4xx_HAL_Driver/Src/stm32g4xx_ll_usb.c ****   if (ep->doublebuffer == 0U)
 1185              		.loc 1 561 0
 1186 0006 10B4     		push	{r4}
 1187              		.cfi_def_cfa_offset 4
 1188              		.cfi_offset 4, -4
 563:Drivers/STM32G4xx_HAL_Driver/Src/stm32g4xx_ll_usb.c ****   {
 564:Drivers/STM32G4xx_HAL_Driver/Src/stm32g4xx_ll_usb.c ****     if (ep->is_in != 0U)
 1189              		.loc 1 564 0
 1190 0008 4B78     		ldrb	r3, [r1, #1]	@ zero_extendqisi2
 1191 000a 13B3     		cbz	r3, .L60
 1192              	.LBB56:
 565:Drivers/STM32G4xx_HAL_Driver/Src/stm32g4xx_ll_usb.c ****     {
 566:Drivers/STM32G4xx_HAL_Driver/Src/stm32g4xx_ll_usb.c ****       PCD_CLEAR_TX_DTOG(USBx, ep->num);
 1193              		.loc 1 566 0
 1194 000c 0B78     		ldrb	r3, [r1]	@ zero_extendqisi2
 1195 000e 30F82320 		ldrh	r2, [r0, r3, lsl #2]
 1196              	.LVL173:
 1197 0012 12F0400F 		tst	r2, #64
 1198 0016 0AD0     		beq	.L61
 1199              	.LBB57:
 1200              		.loc 1 566 0 is_stmt 0 discriminator 1
 1201 0018 30F82340 		ldrh	r4, [r0, r3, lsl #2]
 1202 001c 24F4E044 		bic	r4, r4, #28672
 1203 0020 24F07004 		bic	r4, r4, #112
 1204              	.LVL174:
 1205 0024 48F2C002 		movw	r2, #32960
 1206              	.LVL175:
 1207 0028 2243     		orrs	r2, r2, r4
 1208 002a 20F82320 		strh	r2, [r0, r3, lsl #2]	@ movhi
 1209              	.LVL176:
 1210              	.L61:
 1211              	.LBE57:
 1212              	.LBE56:
 567:Drivers/STM32G4xx_HAL_Driver/Src/stm32g4xx_ll_usb.c **** 
 568:Drivers/STM32G4xx_HAL_Driver/Src/stm32g4xx_ll_usb.c ****       if (ep->type != EP_TYPE_ISOC)
 1213              		.loc 1 568 0 is_stmt 1
 1214 002e CB78     		ldrb	r3, [r1, #3]	@ zero_extendqisi2
 1215 0030 012B     		cmp	r3, #1
 1216 0032 2DD0     		beq	.L59
 1217              	.LBB58:
 569:Drivers/STM32G4xx_HAL_Driver/Src/stm32g4xx_ll_usb.c ****       {
 570:Drivers/STM32G4xx_HAL_Driver/Src/stm32g4xx_ll_usb.c ****         /* Configure NAK status for the Endpoint */
 571:Drivers/STM32G4xx_HAL_Driver/Src/stm32g4xx_ll_usb.c ****         PCD_SET_EP_TX_STATUS(USBx, ep->num, USB_EP_TX_NAK);
 1218              		.loc 1 571 0
 1219 0034 0978     		ldrb	r1, [r1]	@ zero_extendqisi2
 1220              	.LVL177:
 1221 0036 30F82130 		ldrh	r3, [r0, r1, lsl #2]
 1222 003a 23F4E043 		bic	r3, r3, #28672
 1223 003e 23F04003 		bic	r3, r3, #64
ARM GAS  /var/folders/17/j_dgbcc52q10y0jc3c_zbwd80000gn/T//ccdhwDmV.s 			page 33


 1224              	.LVL178:
 1225 0042 83F02003 		eor	r3, r3, #32
 1226              	.LVL179:
 1227 0046 48F28002 		movw	r2, #32896
 1228 004a 1A43     		orrs	r2, r2, r3
 1229 004c 20F82120 		strh	r2, [r0, r1, lsl #2]	@ movhi
 1230 0050 1EE0     		b	.L59
 1231              	.LVL180:
 1232              	.L60:
 1233              	.LBE58:
 1234              	.LBB59:
 572:Drivers/STM32G4xx_HAL_Driver/Src/stm32g4xx_ll_usb.c ****       }
 573:Drivers/STM32G4xx_HAL_Driver/Src/stm32g4xx_ll_usb.c ****     }
 574:Drivers/STM32G4xx_HAL_Driver/Src/stm32g4xx_ll_usb.c ****     else
 575:Drivers/STM32G4xx_HAL_Driver/Src/stm32g4xx_ll_usb.c ****     {
 576:Drivers/STM32G4xx_HAL_Driver/Src/stm32g4xx_ll_usb.c ****       PCD_CLEAR_RX_DTOG(USBx, ep->num);
 1235              		.loc 1 576 0
 1236 0052 0B78     		ldrb	r3, [r1]	@ zero_extendqisi2
 1237 0054 30F82320 		ldrh	r2, [r0, r3, lsl #2]
 1238              	.LVL181:
 1239 0058 12F4804F 		tst	r2, #16384
 1240 005c 0AD0     		beq	.L62
 1241              	.LBB60:
 1242              		.loc 1 576 0 is_stmt 0 discriminator 1
 1243 005e 30F82340 		ldrh	r4, [r0, r3, lsl #2]
 1244 0062 24F4E044 		bic	r4, r4, #28672
 1245 0066 24F07004 		bic	r4, r4, #112
 1246              	.LVL182:
 1247 006a 4CF28002 		movw	r2, #49280
 1248              	.LVL183:
 1249 006e 2243     		orrs	r2, r2, r4
 1250 0070 20F82320 		strh	r2, [r0, r3, lsl #2]	@ movhi
 1251              	.LVL184:
 1252              	.L62:
 1253              	.LBE60:
 1254              	.LBE59:
 1255              	.LBB61:
 577:Drivers/STM32G4xx_HAL_Driver/Src/stm32g4xx_ll_usb.c **** 
 578:Drivers/STM32G4xx_HAL_Driver/Src/stm32g4xx_ll_usb.c ****       /* Configure VALID status for the Endpoint*/
 579:Drivers/STM32G4xx_HAL_Driver/Src/stm32g4xx_ll_usb.c ****       PCD_SET_EP_RX_STATUS(USBx, ep->num, USB_EP_RX_VALID);
 1256              		.loc 1 579 0 is_stmt 1
 1257 0074 0978     		ldrb	r1, [r1]	@ zero_extendqisi2
 1258              	.LVL185:
 1259 0076 30F82130 		ldrh	r3, [r0, r1, lsl #2]
 1260 007a 23F48043 		bic	r3, r3, #16384
 1261 007e 23F07003 		bic	r3, r3, #112
 1262              	.LVL186:
 1263 0082 83F44053 		eor	r3, r3, #12288
 1264              	.LVL187:
 1265 0086 48F28002 		movw	r2, #32896
 1266 008a 1A43     		orrs	r2, r2, r3
 1267 008c 20F82120 		strh	r2, [r0, r1, lsl #2]	@ movhi
 1268              	.LVL188:
 1269              	.L59:
 1270              	.LBE61:
 580:Drivers/STM32G4xx_HAL_Driver/Src/stm32g4xx_ll_usb.c ****     }
 581:Drivers/STM32G4xx_HAL_Driver/Src/stm32g4xx_ll_usb.c ****   }
ARM GAS  /var/folders/17/j_dgbcc52q10y0jc3c_zbwd80000gn/T//ccdhwDmV.s 			page 34


 582:Drivers/STM32G4xx_HAL_Driver/Src/stm32g4xx_ll_usb.c **** 
 583:Drivers/STM32G4xx_HAL_Driver/Src/stm32g4xx_ll_usb.c ****   return HAL_OK;
 584:Drivers/STM32G4xx_HAL_Driver/Src/stm32g4xx_ll_usb.c **** }
 1271              		.loc 1 584 0
 1272 0090 0020     		movs	r0, #0
 1273              	.LVL189:
 1274 0092 5DF8044B 		ldr	r4, [sp], #4
 1275              		.cfi_restore 4
 1276              		.cfi_def_cfa_offset 0
 1277 0096 7047     		bx	lr
 1278              	.LVL190:
 1279              	.L64:
 1280 0098 0020     		movs	r0, #0
 1281              	.LVL191:
 1282 009a 7047     		bx	lr
 1283              		.cfi_endproc
 1284              	.LFE144:
 1286              		.section	.text.USB_StopDevice,"ax",%progbits
 1287              		.align	1
 1288              		.global	USB_StopDevice
 1289              		.syntax unified
 1290              		.thumb
 1291              		.thumb_func
 1292              		.fpu fpv5-sp-d16
 1294              	USB_StopDevice:
 1295              	.LFB145:
 585:Drivers/STM32G4xx_HAL_Driver/Src/stm32g4xx_ll_usb.c **** 
 586:Drivers/STM32G4xx_HAL_Driver/Src/stm32g4xx_ll_usb.c **** /**
 587:Drivers/STM32G4xx_HAL_Driver/Src/stm32g4xx_ll_usb.c ****   * @brief  USB_StopDevice : Stop the usb device mode
 588:Drivers/STM32G4xx_HAL_Driver/Src/stm32g4xx_ll_usb.c ****   * @param  USBx : Selected device
 589:Drivers/STM32G4xx_HAL_Driver/Src/stm32g4xx_ll_usb.c ****   * @retval HAL status
 590:Drivers/STM32G4xx_HAL_Driver/Src/stm32g4xx_ll_usb.c ****   */
 591:Drivers/STM32G4xx_HAL_Driver/Src/stm32g4xx_ll_usb.c **** HAL_StatusTypeDef USB_StopDevice(USB_TypeDef *USBx)
 592:Drivers/STM32G4xx_HAL_Driver/Src/stm32g4xx_ll_usb.c **** {
 1296              		.loc 1 592 0
 1297              		.cfi_startproc
 1298              		@ args = 0, pretend = 0, frame = 0
 1299              		@ frame_needed = 0, uses_anonymous_args = 0
 1300              		@ link register save eliminated.
 1301              	.LVL192:
 1302 0000 0346     		mov	r3, r0
 593:Drivers/STM32G4xx_HAL_Driver/Src/stm32g4xx_ll_usb.c ****   /* disable all interrupts and force USB reset */
 594:Drivers/STM32G4xx_HAL_Driver/Src/stm32g4xx_ll_usb.c ****   USBx->CNTR = (uint16_t)USB_CNTR_FRES;
 1303              		.loc 1 594 0
 1304 0002 0122     		movs	r2, #1
 1305 0004 A0F84020 		strh	r2, [r0, #64]	@ movhi
 595:Drivers/STM32G4xx_HAL_Driver/Src/stm32g4xx_ll_usb.c **** 
 596:Drivers/STM32G4xx_HAL_Driver/Src/stm32g4xx_ll_usb.c ****   /* clear interrupt status register */
 597:Drivers/STM32G4xx_HAL_Driver/Src/stm32g4xx_ll_usb.c ****   USBx->ISTR = 0U;
 1306              		.loc 1 597 0
 1307 0008 0020     		movs	r0, #0
 1308              	.LVL193:
 1309 000a A3F84400 		strh	r0, [r3, #68]	@ movhi
 598:Drivers/STM32G4xx_HAL_Driver/Src/stm32g4xx_ll_usb.c **** 
 599:Drivers/STM32G4xx_HAL_Driver/Src/stm32g4xx_ll_usb.c ****   /* switch-off device */
 600:Drivers/STM32G4xx_HAL_Driver/Src/stm32g4xx_ll_usb.c ****   USBx->CNTR = (uint16_t)(USB_CNTR_FRES | USB_CNTR_PDWN);
 1310              		.loc 1 600 0
ARM GAS  /var/folders/17/j_dgbcc52q10y0jc3c_zbwd80000gn/T//ccdhwDmV.s 			page 35


 1311 000e 0322     		movs	r2, #3
 1312 0010 A3F84020 		strh	r2, [r3, #64]	@ movhi
 601:Drivers/STM32G4xx_HAL_Driver/Src/stm32g4xx_ll_usb.c **** 
 602:Drivers/STM32G4xx_HAL_Driver/Src/stm32g4xx_ll_usb.c ****   return HAL_OK;
 603:Drivers/STM32G4xx_HAL_Driver/Src/stm32g4xx_ll_usb.c **** }
 1313              		.loc 1 603 0
 1314 0014 7047     		bx	lr
 1315              		.cfi_endproc
 1316              	.LFE145:
 1318              		.section	.text.USB_SetDevAddress,"ax",%progbits
 1319              		.align	1
 1320              		.global	USB_SetDevAddress
 1321              		.syntax unified
 1322              		.thumb
 1323              		.thumb_func
 1324              		.fpu fpv5-sp-d16
 1326              	USB_SetDevAddress:
 1327              	.LFB146:
 604:Drivers/STM32G4xx_HAL_Driver/Src/stm32g4xx_ll_usb.c **** 
 605:Drivers/STM32G4xx_HAL_Driver/Src/stm32g4xx_ll_usb.c **** /**
 606:Drivers/STM32G4xx_HAL_Driver/Src/stm32g4xx_ll_usb.c ****   * @brief  USB_SetDevAddress : Stop the usb device mode
 607:Drivers/STM32G4xx_HAL_Driver/Src/stm32g4xx_ll_usb.c ****   * @param  USBx : Selected device
 608:Drivers/STM32G4xx_HAL_Driver/Src/stm32g4xx_ll_usb.c ****   * @param  address : new device address to be assigned
 609:Drivers/STM32G4xx_HAL_Driver/Src/stm32g4xx_ll_usb.c ****   *          This parameter can be a value from 0 to 255
 610:Drivers/STM32G4xx_HAL_Driver/Src/stm32g4xx_ll_usb.c ****   * @retval HAL status
 611:Drivers/STM32G4xx_HAL_Driver/Src/stm32g4xx_ll_usb.c ****   */
 612:Drivers/STM32G4xx_HAL_Driver/Src/stm32g4xx_ll_usb.c **** HAL_StatusTypeDef  USB_SetDevAddress(USB_TypeDef *USBx, uint8_t address)
 613:Drivers/STM32G4xx_HAL_Driver/Src/stm32g4xx_ll_usb.c **** {
 1328              		.loc 1 613 0
 1329              		.cfi_startproc
 1330              		@ args = 0, pretend = 0, frame = 0
 1331              		@ frame_needed = 0, uses_anonymous_args = 0
 1332              		@ link register save eliminated.
 1333              	.LVL194:
 614:Drivers/STM32G4xx_HAL_Driver/Src/stm32g4xx_ll_usb.c ****   if (address == 0U)
 1334              		.loc 1 614 0
 1335 0000 11B9     		cbnz	r1, .L69
 615:Drivers/STM32G4xx_HAL_Driver/Src/stm32g4xx_ll_usb.c ****   {
 616:Drivers/STM32G4xx_HAL_Driver/Src/stm32g4xx_ll_usb.c ****     /* set device address and enable function */
 617:Drivers/STM32G4xx_HAL_Driver/Src/stm32g4xx_ll_usb.c ****     USBx->DADDR = (uint16_t)USB_DADDR_EF;
 1336              		.loc 1 617 0
 1337 0002 8023     		movs	r3, #128
 1338 0004 A0F84C30 		strh	r3, [r0, #76]	@ movhi
 1339              	.L69:
 618:Drivers/STM32G4xx_HAL_Driver/Src/stm32g4xx_ll_usb.c ****   }
 619:Drivers/STM32G4xx_HAL_Driver/Src/stm32g4xx_ll_usb.c **** 
 620:Drivers/STM32G4xx_HAL_Driver/Src/stm32g4xx_ll_usb.c ****   return HAL_OK;
 621:Drivers/STM32G4xx_HAL_Driver/Src/stm32g4xx_ll_usb.c **** }
 1340              		.loc 1 621 0
 1341 0008 0020     		movs	r0, #0
 1342              	.LVL195:
 1343 000a 7047     		bx	lr
 1344              		.cfi_endproc
 1345              	.LFE146:
 1347              		.section	.text.USB_DevConnect,"ax",%progbits
 1348              		.align	1
 1349              		.global	USB_DevConnect
ARM GAS  /var/folders/17/j_dgbcc52q10y0jc3c_zbwd80000gn/T//ccdhwDmV.s 			page 36


 1350              		.syntax unified
 1351              		.thumb
 1352              		.thumb_func
 1353              		.fpu fpv5-sp-d16
 1355              	USB_DevConnect:
 1356              	.LFB147:
 622:Drivers/STM32G4xx_HAL_Driver/Src/stm32g4xx_ll_usb.c **** 
 623:Drivers/STM32G4xx_HAL_Driver/Src/stm32g4xx_ll_usb.c **** /**
 624:Drivers/STM32G4xx_HAL_Driver/Src/stm32g4xx_ll_usb.c ****   * @brief  USB_DevConnect : Connect the USB device by enabling the pull-up/pull-down
 625:Drivers/STM32G4xx_HAL_Driver/Src/stm32g4xx_ll_usb.c ****   * @param  USBx : Selected device
 626:Drivers/STM32G4xx_HAL_Driver/Src/stm32g4xx_ll_usb.c ****   * @retval HAL status
 627:Drivers/STM32G4xx_HAL_Driver/Src/stm32g4xx_ll_usb.c ****   */
 628:Drivers/STM32G4xx_HAL_Driver/Src/stm32g4xx_ll_usb.c **** HAL_StatusTypeDef  USB_DevConnect(USB_TypeDef *USBx)
 629:Drivers/STM32G4xx_HAL_Driver/Src/stm32g4xx_ll_usb.c **** {
 1357              		.loc 1 629 0
 1358              		.cfi_startproc
 1359              		@ args = 0, pretend = 0, frame = 0
 1360              		@ frame_needed = 0, uses_anonymous_args = 0
 1361              		@ link register save eliminated.
 1362              	.LVL196:
 630:Drivers/STM32G4xx_HAL_Driver/Src/stm32g4xx_ll_usb.c ****   /* Enabling DP Pull-UP bit to Connect internal PU resistor on USB DP line */
 631:Drivers/STM32G4xx_HAL_Driver/Src/stm32g4xx_ll_usb.c ****   USBx->BCDR |= (uint16_t)USB_BCDR_DPPU;
 1363              		.loc 1 631 0
 1364 0000 B0F85830 		ldrh	r3, [r0, #88]
 1365 0004 43F40043 		orr	r3, r3, #32768
 1366 0008 A0F85830 		strh	r3, [r0, #88]	@ movhi
 632:Drivers/STM32G4xx_HAL_Driver/Src/stm32g4xx_ll_usb.c **** 
 633:Drivers/STM32G4xx_HAL_Driver/Src/stm32g4xx_ll_usb.c ****   return HAL_OK;
 634:Drivers/STM32G4xx_HAL_Driver/Src/stm32g4xx_ll_usb.c **** }
 1367              		.loc 1 634 0
 1368 000c 0020     		movs	r0, #0
 1369              	.LVL197:
 1370 000e 7047     		bx	lr
 1371              		.cfi_endproc
 1372              	.LFE147:
 1374              		.section	.text.USB_DevDisconnect,"ax",%progbits
 1375              		.align	1
 1376              		.global	USB_DevDisconnect
 1377              		.syntax unified
 1378              		.thumb
 1379              		.thumb_func
 1380              		.fpu fpv5-sp-d16
 1382              	USB_DevDisconnect:
 1383              	.LFB148:
 635:Drivers/STM32G4xx_HAL_Driver/Src/stm32g4xx_ll_usb.c **** 
 636:Drivers/STM32G4xx_HAL_Driver/Src/stm32g4xx_ll_usb.c **** /**
 637:Drivers/STM32G4xx_HAL_Driver/Src/stm32g4xx_ll_usb.c ****   * @brief  USB_DevDisconnect : Disconnect the USB device by disabling the pull-up/pull-down
 638:Drivers/STM32G4xx_HAL_Driver/Src/stm32g4xx_ll_usb.c ****   * @param  USBx : Selected device
 639:Drivers/STM32G4xx_HAL_Driver/Src/stm32g4xx_ll_usb.c ****   * @retval HAL status
 640:Drivers/STM32G4xx_HAL_Driver/Src/stm32g4xx_ll_usb.c ****   */
 641:Drivers/STM32G4xx_HAL_Driver/Src/stm32g4xx_ll_usb.c **** HAL_StatusTypeDef  USB_DevDisconnect(USB_TypeDef *USBx)
 642:Drivers/STM32G4xx_HAL_Driver/Src/stm32g4xx_ll_usb.c **** {
 1384              		.loc 1 642 0
 1385              		.cfi_startproc
 1386              		@ args = 0, pretend = 0, frame = 0
 1387              		@ frame_needed = 0, uses_anonymous_args = 0
 1388              		@ link register save eliminated.
ARM GAS  /var/folders/17/j_dgbcc52q10y0jc3c_zbwd80000gn/T//ccdhwDmV.s 			page 37


 1389              	.LVL198:
 643:Drivers/STM32G4xx_HAL_Driver/Src/stm32g4xx_ll_usb.c ****   /* Disable DP Pull-Up bit to disconnect the Internal PU resistor on USB DP line */
 644:Drivers/STM32G4xx_HAL_Driver/Src/stm32g4xx_ll_usb.c ****   USBx->BCDR &= (uint16_t)(~(USB_BCDR_DPPU));
 1390              		.loc 1 644 0
 1391 0000 B0F85830 		ldrh	r3, [r0, #88]
 1392 0004 C3F30E03 		ubfx	r3, r3, #0, #15
 1393 0008 A0F85830 		strh	r3, [r0, #88]	@ movhi
 645:Drivers/STM32G4xx_HAL_Driver/Src/stm32g4xx_ll_usb.c **** 
 646:Drivers/STM32G4xx_HAL_Driver/Src/stm32g4xx_ll_usb.c ****   return HAL_OK;
 647:Drivers/STM32G4xx_HAL_Driver/Src/stm32g4xx_ll_usb.c **** }
 1394              		.loc 1 647 0
 1395 000c 0020     		movs	r0, #0
 1396              	.LVL199:
 1397 000e 7047     		bx	lr
 1398              		.cfi_endproc
 1399              	.LFE148:
 1401              		.section	.text.USB_ReadInterrupts,"ax",%progbits
 1402              		.align	1
 1403              		.global	USB_ReadInterrupts
 1404              		.syntax unified
 1405              		.thumb
 1406              		.thumb_func
 1407              		.fpu fpv5-sp-d16
 1409              	USB_ReadInterrupts:
 1410              	.LFB149:
 648:Drivers/STM32G4xx_HAL_Driver/Src/stm32g4xx_ll_usb.c **** 
 649:Drivers/STM32G4xx_HAL_Driver/Src/stm32g4xx_ll_usb.c **** /**
 650:Drivers/STM32G4xx_HAL_Driver/Src/stm32g4xx_ll_usb.c ****   * @brief  USB_ReadInterrupts: return the global USB interrupt status
 651:Drivers/STM32G4xx_HAL_Driver/Src/stm32g4xx_ll_usb.c ****   * @param  USBx : Selected device
 652:Drivers/STM32G4xx_HAL_Driver/Src/stm32g4xx_ll_usb.c ****   * @retval HAL status
 653:Drivers/STM32G4xx_HAL_Driver/Src/stm32g4xx_ll_usb.c ****   */
 654:Drivers/STM32G4xx_HAL_Driver/Src/stm32g4xx_ll_usb.c **** uint32_t  USB_ReadInterrupts(USB_TypeDef *USBx)
 655:Drivers/STM32G4xx_HAL_Driver/Src/stm32g4xx_ll_usb.c **** {
 1411              		.loc 1 655 0
 1412              		.cfi_startproc
 1413              		@ args = 0, pretend = 0, frame = 0
 1414              		@ frame_needed = 0, uses_anonymous_args = 0
 1415              		@ link register save eliminated.
 1416              	.LVL200:
 656:Drivers/STM32G4xx_HAL_Driver/Src/stm32g4xx_ll_usb.c ****   uint32_t tmpreg;
 657:Drivers/STM32G4xx_HAL_Driver/Src/stm32g4xx_ll_usb.c **** 
 658:Drivers/STM32G4xx_HAL_Driver/Src/stm32g4xx_ll_usb.c ****   tmpreg = USBx->ISTR;
 1417              		.loc 1 658 0
 1418 0000 B0F84400 		ldrh	r0, [r0, #68]
 1419              	.LVL201:
 659:Drivers/STM32G4xx_HAL_Driver/Src/stm32g4xx_ll_usb.c ****   return tmpreg;
 660:Drivers/STM32G4xx_HAL_Driver/Src/stm32g4xx_ll_usb.c **** }
 1420              		.loc 1 660 0
 1421 0004 7047     		bx	lr
 1422              		.cfi_endproc
 1423              	.LFE149:
 1425              		.section	.text.USB_ReadDevAllOutEpInterrupt,"ax",%progbits
 1426              		.align	1
 1427              		.global	USB_ReadDevAllOutEpInterrupt
 1428              		.syntax unified
 1429              		.thumb
 1430              		.thumb_func
ARM GAS  /var/folders/17/j_dgbcc52q10y0jc3c_zbwd80000gn/T//ccdhwDmV.s 			page 38


 1431              		.fpu fpv5-sp-d16
 1433              	USB_ReadDevAllOutEpInterrupt:
 1434              	.LFB150:
 661:Drivers/STM32G4xx_HAL_Driver/Src/stm32g4xx_ll_usb.c **** 
 662:Drivers/STM32G4xx_HAL_Driver/Src/stm32g4xx_ll_usb.c **** /**
 663:Drivers/STM32G4xx_HAL_Driver/Src/stm32g4xx_ll_usb.c ****   * @brief  USB_ReadDevAllOutEpInterrupt: return the USB device OUT endpoints interrupt status
 664:Drivers/STM32G4xx_HAL_Driver/Src/stm32g4xx_ll_usb.c ****   * @param  USBx : Selected device
 665:Drivers/STM32G4xx_HAL_Driver/Src/stm32g4xx_ll_usb.c ****   * @retval HAL status
 666:Drivers/STM32G4xx_HAL_Driver/Src/stm32g4xx_ll_usb.c ****   */
 667:Drivers/STM32G4xx_HAL_Driver/Src/stm32g4xx_ll_usb.c **** uint32_t USB_ReadDevAllOutEpInterrupt(USB_TypeDef *USBx)
 668:Drivers/STM32G4xx_HAL_Driver/Src/stm32g4xx_ll_usb.c **** {
 1435              		.loc 1 668 0
 1436              		.cfi_startproc
 1437              		@ args = 0, pretend = 0, frame = 0
 1438              		@ frame_needed = 0, uses_anonymous_args = 0
 1439              		@ link register save eliminated.
 1440              	.LVL202:
 669:Drivers/STM32G4xx_HAL_Driver/Src/stm32g4xx_ll_usb.c ****   /* Prevent unused argument(s) compilation warning */
 670:Drivers/STM32G4xx_HAL_Driver/Src/stm32g4xx_ll_usb.c ****   UNUSED(USBx);
 671:Drivers/STM32G4xx_HAL_Driver/Src/stm32g4xx_ll_usb.c ****   /* NOTE : - This function is not required by USB Device FS peripheral, it is used
 672:Drivers/STM32G4xx_HAL_Driver/Src/stm32g4xx_ll_usb.c ****               only by USB OTG FS peripheral.
 673:Drivers/STM32G4xx_HAL_Driver/Src/stm32g4xx_ll_usb.c ****             - This function is added to ensure compatibility across platforms.
 674:Drivers/STM32G4xx_HAL_Driver/Src/stm32g4xx_ll_usb.c ****    */
 675:Drivers/STM32G4xx_HAL_Driver/Src/stm32g4xx_ll_usb.c ****   return (0);
 676:Drivers/STM32G4xx_HAL_Driver/Src/stm32g4xx_ll_usb.c **** }
 1441              		.loc 1 676 0
 1442 0000 0020     		movs	r0, #0
 1443              	.LVL203:
 1444 0002 7047     		bx	lr
 1445              		.cfi_endproc
 1446              	.LFE150:
 1448              		.section	.text.USB_ReadDevAllInEpInterrupt,"ax",%progbits
 1449              		.align	1
 1450              		.global	USB_ReadDevAllInEpInterrupt
 1451              		.syntax unified
 1452              		.thumb
 1453              		.thumb_func
 1454              		.fpu fpv5-sp-d16
 1456              	USB_ReadDevAllInEpInterrupt:
 1457              	.LFB151:
 677:Drivers/STM32G4xx_HAL_Driver/Src/stm32g4xx_ll_usb.c **** 
 678:Drivers/STM32G4xx_HAL_Driver/Src/stm32g4xx_ll_usb.c **** /**
 679:Drivers/STM32G4xx_HAL_Driver/Src/stm32g4xx_ll_usb.c ****   * @brief  USB_ReadDevAllInEpInterrupt: return the USB device IN endpoints interrupt status
 680:Drivers/STM32G4xx_HAL_Driver/Src/stm32g4xx_ll_usb.c ****   * @param  USBx : Selected device
 681:Drivers/STM32G4xx_HAL_Driver/Src/stm32g4xx_ll_usb.c ****   * @retval HAL status
 682:Drivers/STM32G4xx_HAL_Driver/Src/stm32g4xx_ll_usb.c ****   */
 683:Drivers/STM32G4xx_HAL_Driver/Src/stm32g4xx_ll_usb.c **** uint32_t USB_ReadDevAllInEpInterrupt(USB_TypeDef *USBx)
 684:Drivers/STM32G4xx_HAL_Driver/Src/stm32g4xx_ll_usb.c **** {
 1458              		.loc 1 684 0
 1459              		.cfi_startproc
 1460              		@ args = 0, pretend = 0, frame = 0
 1461              		@ frame_needed = 0, uses_anonymous_args = 0
 1462              		@ link register save eliminated.
 1463              	.LVL204:
 685:Drivers/STM32G4xx_HAL_Driver/Src/stm32g4xx_ll_usb.c ****   /* Prevent unused argument(s) compilation warning */
 686:Drivers/STM32G4xx_HAL_Driver/Src/stm32g4xx_ll_usb.c ****   UNUSED(USBx);
 687:Drivers/STM32G4xx_HAL_Driver/Src/stm32g4xx_ll_usb.c ****   /* NOTE : - This function is not required by USB Device FS peripheral, it is used
ARM GAS  /var/folders/17/j_dgbcc52q10y0jc3c_zbwd80000gn/T//ccdhwDmV.s 			page 39


 688:Drivers/STM32G4xx_HAL_Driver/Src/stm32g4xx_ll_usb.c ****               only by USB OTG FS peripheral.
 689:Drivers/STM32G4xx_HAL_Driver/Src/stm32g4xx_ll_usb.c ****             - This function is added to ensure compatibility across platforms.
 690:Drivers/STM32G4xx_HAL_Driver/Src/stm32g4xx_ll_usb.c ****    */
 691:Drivers/STM32G4xx_HAL_Driver/Src/stm32g4xx_ll_usb.c ****   return (0);
 692:Drivers/STM32G4xx_HAL_Driver/Src/stm32g4xx_ll_usb.c **** }
 1464              		.loc 1 692 0
 1465 0000 0020     		movs	r0, #0
 1466              	.LVL205:
 1467 0002 7047     		bx	lr
 1468              		.cfi_endproc
 1469              	.LFE151:
 1471              		.section	.text.USB_ReadDevOutEPInterrupt,"ax",%progbits
 1472              		.align	1
 1473              		.global	USB_ReadDevOutEPInterrupt
 1474              		.syntax unified
 1475              		.thumb
 1476              		.thumb_func
 1477              		.fpu fpv5-sp-d16
 1479              	USB_ReadDevOutEPInterrupt:
 1480              	.LFB152:
 693:Drivers/STM32G4xx_HAL_Driver/Src/stm32g4xx_ll_usb.c **** 
 694:Drivers/STM32G4xx_HAL_Driver/Src/stm32g4xx_ll_usb.c **** /**
 695:Drivers/STM32G4xx_HAL_Driver/Src/stm32g4xx_ll_usb.c ****   * @brief  Returns Device OUT EP Interrupt register
 696:Drivers/STM32G4xx_HAL_Driver/Src/stm32g4xx_ll_usb.c ****   * @param  USBx : Selected device
 697:Drivers/STM32G4xx_HAL_Driver/Src/stm32g4xx_ll_usb.c ****   * @param  epnum : endpoint number
 698:Drivers/STM32G4xx_HAL_Driver/Src/stm32g4xx_ll_usb.c ****   *          This parameter can be a value from 0 to 15
 699:Drivers/STM32G4xx_HAL_Driver/Src/stm32g4xx_ll_usb.c ****   * @retval Device OUT EP Interrupt register
 700:Drivers/STM32G4xx_HAL_Driver/Src/stm32g4xx_ll_usb.c ****   */
 701:Drivers/STM32G4xx_HAL_Driver/Src/stm32g4xx_ll_usb.c **** uint32_t USB_ReadDevOutEPInterrupt(USB_TypeDef *USBx, uint8_t epnum)
 702:Drivers/STM32G4xx_HAL_Driver/Src/stm32g4xx_ll_usb.c **** {
 1481              		.loc 1 702 0
 1482              		.cfi_startproc
 1483              		@ args = 0, pretend = 0, frame = 0
 1484              		@ frame_needed = 0, uses_anonymous_args = 0
 1485              		@ link register save eliminated.
 1486              	.LVL206:
 703:Drivers/STM32G4xx_HAL_Driver/Src/stm32g4xx_ll_usb.c ****   /* Prevent unused argument(s) compilation warning */
 704:Drivers/STM32G4xx_HAL_Driver/Src/stm32g4xx_ll_usb.c ****   UNUSED(USBx);
 705:Drivers/STM32G4xx_HAL_Driver/Src/stm32g4xx_ll_usb.c ****   UNUSED(epnum);
 706:Drivers/STM32G4xx_HAL_Driver/Src/stm32g4xx_ll_usb.c ****   /* NOTE : - This function is not required by USB Device FS peripheral, it is used
 707:Drivers/STM32G4xx_HAL_Driver/Src/stm32g4xx_ll_usb.c ****               only by USB OTG FS peripheral.
 708:Drivers/STM32G4xx_HAL_Driver/Src/stm32g4xx_ll_usb.c ****             - This function is added to ensure compatibility across platforms.
 709:Drivers/STM32G4xx_HAL_Driver/Src/stm32g4xx_ll_usb.c ****    */
 710:Drivers/STM32G4xx_HAL_Driver/Src/stm32g4xx_ll_usb.c ****   return (0);
 711:Drivers/STM32G4xx_HAL_Driver/Src/stm32g4xx_ll_usb.c **** }
 1487              		.loc 1 711 0
 1488 0000 0020     		movs	r0, #0
 1489              	.LVL207:
 1490 0002 7047     		bx	lr
 1491              		.cfi_endproc
 1492              	.LFE152:
 1494              		.section	.text.USB_ReadDevInEPInterrupt,"ax",%progbits
 1495              		.align	1
 1496              		.global	USB_ReadDevInEPInterrupt
 1497              		.syntax unified
 1498              		.thumb
 1499              		.thumb_func
ARM GAS  /var/folders/17/j_dgbcc52q10y0jc3c_zbwd80000gn/T//ccdhwDmV.s 			page 40


 1500              		.fpu fpv5-sp-d16
 1502              	USB_ReadDevInEPInterrupt:
 1503              	.LFB153:
 712:Drivers/STM32G4xx_HAL_Driver/Src/stm32g4xx_ll_usb.c **** 
 713:Drivers/STM32G4xx_HAL_Driver/Src/stm32g4xx_ll_usb.c **** /**
 714:Drivers/STM32G4xx_HAL_Driver/Src/stm32g4xx_ll_usb.c ****   * @brief  Returns Device IN EP Interrupt register
 715:Drivers/STM32G4xx_HAL_Driver/Src/stm32g4xx_ll_usb.c ****   * @param  USBx : Selected device
 716:Drivers/STM32G4xx_HAL_Driver/Src/stm32g4xx_ll_usb.c ****   * @param  epnum : endpoint number
 717:Drivers/STM32G4xx_HAL_Driver/Src/stm32g4xx_ll_usb.c ****   *          This parameter can be a value from 0 to 15
 718:Drivers/STM32G4xx_HAL_Driver/Src/stm32g4xx_ll_usb.c ****   * @retval Device IN EP Interrupt register
 719:Drivers/STM32G4xx_HAL_Driver/Src/stm32g4xx_ll_usb.c ****   */
 720:Drivers/STM32G4xx_HAL_Driver/Src/stm32g4xx_ll_usb.c **** uint32_t USB_ReadDevInEPInterrupt(USB_TypeDef *USBx, uint8_t epnum)
 721:Drivers/STM32G4xx_HAL_Driver/Src/stm32g4xx_ll_usb.c **** {
 1504              		.loc 1 721 0
 1505              		.cfi_startproc
 1506              		@ args = 0, pretend = 0, frame = 0
 1507              		@ frame_needed = 0, uses_anonymous_args = 0
 1508              		@ link register save eliminated.
 1509              	.LVL208:
 722:Drivers/STM32G4xx_HAL_Driver/Src/stm32g4xx_ll_usb.c ****   /* Prevent unused argument(s) compilation warning */
 723:Drivers/STM32G4xx_HAL_Driver/Src/stm32g4xx_ll_usb.c ****   UNUSED(USBx);
 724:Drivers/STM32G4xx_HAL_Driver/Src/stm32g4xx_ll_usb.c ****   UNUSED(epnum);
 725:Drivers/STM32G4xx_HAL_Driver/Src/stm32g4xx_ll_usb.c ****   /* NOTE : - This function is not required by USB Device FS peripheral, it is used
 726:Drivers/STM32G4xx_HAL_Driver/Src/stm32g4xx_ll_usb.c ****               only by USB OTG FS peripheral.
 727:Drivers/STM32G4xx_HAL_Driver/Src/stm32g4xx_ll_usb.c ****             - This function is added to ensure compatibility across platforms.
 728:Drivers/STM32G4xx_HAL_Driver/Src/stm32g4xx_ll_usb.c ****    */
 729:Drivers/STM32G4xx_HAL_Driver/Src/stm32g4xx_ll_usb.c ****   return (0);
 730:Drivers/STM32G4xx_HAL_Driver/Src/stm32g4xx_ll_usb.c **** }
 1510              		.loc 1 730 0
 1511 0000 0020     		movs	r0, #0
 1512              	.LVL209:
 1513 0002 7047     		bx	lr
 1514              		.cfi_endproc
 1515              	.LFE153:
 1517              		.section	.text.USB_ClearInterrupts,"ax",%progbits
 1518              		.align	1
 1519              		.global	USB_ClearInterrupts
 1520              		.syntax unified
 1521              		.thumb
 1522              		.thumb_func
 1523              		.fpu fpv5-sp-d16
 1525              	USB_ClearInterrupts:
 1526              	.LFB154:
 731:Drivers/STM32G4xx_HAL_Driver/Src/stm32g4xx_ll_usb.c **** 
 732:Drivers/STM32G4xx_HAL_Driver/Src/stm32g4xx_ll_usb.c **** /**
 733:Drivers/STM32G4xx_HAL_Driver/Src/stm32g4xx_ll_usb.c ****   * @brief  USB_ClearInterrupts: clear a USB interrupt
 734:Drivers/STM32G4xx_HAL_Driver/Src/stm32g4xx_ll_usb.c ****   * @param  USBx  Selected device
 735:Drivers/STM32G4xx_HAL_Driver/Src/stm32g4xx_ll_usb.c ****   * @param  interrupt  interrupt flag
 736:Drivers/STM32G4xx_HAL_Driver/Src/stm32g4xx_ll_usb.c ****   * @retval None
 737:Drivers/STM32G4xx_HAL_Driver/Src/stm32g4xx_ll_usb.c ****   */
 738:Drivers/STM32G4xx_HAL_Driver/Src/stm32g4xx_ll_usb.c **** void  USB_ClearInterrupts(USB_TypeDef *USBx, uint32_t interrupt)
 739:Drivers/STM32G4xx_HAL_Driver/Src/stm32g4xx_ll_usb.c **** {
 1527              		.loc 1 739 0
 1528              		.cfi_startproc
 1529              		@ args = 0, pretend = 0, frame = 0
 1530              		@ frame_needed = 0, uses_anonymous_args = 0
 1531              		@ link register save eliminated.
ARM GAS  /var/folders/17/j_dgbcc52q10y0jc3c_zbwd80000gn/T//ccdhwDmV.s 			page 41


 1532              	.LVL210:
 740:Drivers/STM32G4xx_HAL_Driver/Src/stm32g4xx_ll_usb.c ****   /* Prevent unused argument(s) compilation warning */
 741:Drivers/STM32G4xx_HAL_Driver/Src/stm32g4xx_ll_usb.c ****   UNUSED(USBx);
 742:Drivers/STM32G4xx_HAL_Driver/Src/stm32g4xx_ll_usb.c ****   UNUSED(interrupt);
 743:Drivers/STM32G4xx_HAL_Driver/Src/stm32g4xx_ll_usb.c ****   /* NOTE : - This function is not required by USB Device FS peripheral, it is used
 744:Drivers/STM32G4xx_HAL_Driver/Src/stm32g4xx_ll_usb.c ****               only by USB OTG FS peripheral.
 745:Drivers/STM32G4xx_HAL_Driver/Src/stm32g4xx_ll_usb.c ****             - This function is added to ensure compatibility across platforms.
 746:Drivers/STM32G4xx_HAL_Driver/Src/stm32g4xx_ll_usb.c ****    */
 747:Drivers/STM32G4xx_HAL_Driver/Src/stm32g4xx_ll_usb.c **** }
 1533              		.loc 1 747 0
 1534 0000 7047     		bx	lr
 1535              		.cfi_endproc
 1536              	.LFE154:
 1538              		.section	.text.USB_EP0_OutStart,"ax",%progbits
 1539              		.align	1
 1540              		.global	USB_EP0_OutStart
 1541              		.syntax unified
 1542              		.thumb
 1543              		.thumb_func
 1544              		.fpu fpv5-sp-d16
 1546              	USB_EP0_OutStart:
 1547              	.LFB155:
 748:Drivers/STM32G4xx_HAL_Driver/Src/stm32g4xx_ll_usb.c **** 
 749:Drivers/STM32G4xx_HAL_Driver/Src/stm32g4xx_ll_usb.c **** /**
 750:Drivers/STM32G4xx_HAL_Driver/Src/stm32g4xx_ll_usb.c ****   * @brief  Prepare the EP0 to start the first control setup
 751:Drivers/STM32G4xx_HAL_Driver/Src/stm32g4xx_ll_usb.c ****   * @param  USBx  Selected device
 752:Drivers/STM32G4xx_HAL_Driver/Src/stm32g4xx_ll_usb.c ****   * @param  psetup  pointer to setup packet
 753:Drivers/STM32G4xx_HAL_Driver/Src/stm32g4xx_ll_usb.c ****   * @retval HAL status
 754:Drivers/STM32G4xx_HAL_Driver/Src/stm32g4xx_ll_usb.c ****   */
 755:Drivers/STM32G4xx_HAL_Driver/Src/stm32g4xx_ll_usb.c **** HAL_StatusTypeDef USB_EP0_OutStart(USB_TypeDef *USBx, uint8_t *psetup)
 756:Drivers/STM32G4xx_HAL_Driver/Src/stm32g4xx_ll_usb.c **** {
 1548              		.loc 1 756 0
 1549              		.cfi_startproc
 1550              		@ args = 0, pretend = 0, frame = 0
 1551              		@ frame_needed = 0, uses_anonymous_args = 0
 1552              		@ link register save eliminated.
 1553              	.LVL211:
 757:Drivers/STM32G4xx_HAL_Driver/Src/stm32g4xx_ll_usb.c ****   /* Prevent unused argument(s) compilation warning */
 758:Drivers/STM32G4xx_HAL_Driver/Src/stm32g4xx_ll_usb.c ****   UNUSED(USBx);
 759:Drivers/STM32G4xx_HAL_Driver/Src/stm32g4xx_ll_usb.c ****   UNUSED(psetup);
 760:Drivers/STM32G4xx_HAL_Driver/Src/stm32g4xx_ll_usb.c ****   /* NOTE : - This function is not required by USB Device FS peripheral, it is used
 761:Drivers/STM32G4xx_HAL_Driver/Src/stm32g4xx_ll_usb.c ****               only by USB OTG FS peripheral.
 762:Drivers/STM32G4xx_HAL_Driver/Src/stm32g4xx_ll_usb.c ****             - This function is added to ensure compatibility across platforms.
 763:Drivers/STM32G4xx_HAL_Driver/Src/stm32g4xx_ll_usb.c ****    */
 764:Drivers/STM32G4xx_HAL_Driver/Src/stm32g4xx_ll_usb.c ****   return HAL_OK;
 765:Drivers/STM32G4xx_HAL_Driver/Src/stm32g4xx_ll_usb.c **** }
 1554              		.loc 1 765 0
 1555 0000 0020     		movs	r0, #0
 1556              	.LVL212:
 1557 0002 7047     		bx	lr
 1558              		.cfi_endproc
 1559              	.LFE155:
 1561              		.section	.text.USB_ActivateRemoteWakeup,"ax",%progbits
 1562              		.align	1
 1563              		.global	USB_ActivateRemoteWakeup
 1564              		.syntax unified
 1565              		.thumb
ARM GAS  /var/folders/17/j_dgbcc52q10y0jc3c_zbwd80000gn/T//ccdhwDmV.s 			page 42


 1566              		.thumb_func
 1567              		.fpu fpv5-sp-d16
 1569              	USB_ActivateRemoteWakeup:
 1570              	.LFB156:
 766:Drivers/STM32G4xx_HAL_Driver/Src/stm32g4xx_ll_usb.c **** 
 767:Drivers/STM32G4xx_HAL_Driver/Src/stm32g4xx_ll_usb.c **** /**
 768:Drivers/STM32G4xx_HAL_Driver/Src/stm32g4xx_ll_usb.c ****   * @brief  USB_ActivateRemoteWakeup : active remote wakeup signalling
 769:Drivers/STM32G4xx_HAL_Driver/Src/stm32g4xx_ll_usb.c ****   * @param  USBx  Selected device
 770:Drivers/STM32G4xx_HAL_Driver/Src/stm32g4xx_ll_usb.c ****   * @retval HAL status
 771:Drivers/STM32G4xx_HAL_Driver/Src/stm32g4xx_ll_usb.c ****   */
 772:Drivers/STM32G4xx_HAL_Driver/Src/stm32g4xx_ll_usb.c **** HAL_StatusTypeDef USB_ActivateRemoteWakeup(USB_TypeDef *USBx)
 773:Drivers/STM32G4xx_HAL_Driver/Src/stm32g4xx_ll_usb.c **** {
 1571              		.loc 1 773 0
 1572              		.cfi_startproc
 1573              		@ args = 0, pretend = 0, frame = 0
 1574              		@ frame_needed = 0, uses_anonymous_args = 0
 1575              		@ link register save eliminated.
 1576              	.LVL213:
 774:Drivers/STM32G4xx_HAL_Driver/Src/stm32g4xx_ll_usb.c ****   USBx->CNTR |= (uint16_t)USB_CNTR_RESUME;
 1577              		.loc 1 774 0
 1578 0000 B0F84030 		ldrh	r3, [r0, #64]
 1579 0004 43F01003 		orr	r3, r3, #16
 1580 0008 A0F84030 		strh	r3, [r0, #64]	@ movhi
 775:Drivers/STM32G4xx_HAL_Driver/Src/stm32g4xx_ll_usb.c **** 
 776:Drivers/STM32G4xx_HAL_Driver/Src/stm32g4xx_ll_usb.c ****   return HAL_OK;
 777:Drivers/STM32G4xx_HAL_Driver/Src/stm32g4xx_ll_usb.c **** }
 1581              		.loc 1 777 0
 1582 000c 0020     		movs	r0, #0
 1583              	.LVL214:
 1584 000e 7047     		bx	lr
 1585              		.cfi_endproc
 1586              	.LFE156:
 1588              		.section	.text.USB_DeActivateRemoteWakeup,"ax",%progbits
 1589              		.align	1
 1590              		.global	USB_DeActivateRemoteWakeup
 1591              		.syntax unified
 1592              		.thumb
 1593              		.thumb_func
 1594              		.fpu fpv5-sp-d16
 1596              	USB_DeActivateRemoteWakeup:
 1597              	.LFB157:
 778:Drivers/STM32G4xx_HAL_Driver/Src/stm32g4xx_ll_usb.c **** 
 779:Drivers/STM32G4xx_HAL_Driver/Src/stm32g4xx_ll_usb.c **** /**
 780:Drivers/STM32G4xx_HAL_Driver/Src/stm32g4xx_ll_usb.c ****   * @brief  USB_DeActivateRemoteWakeup : de-active remote wakeup signalling
 781:Drivers/STM32G4xx_HAL_Driver/Src/stm32g4xx_ll_usb.c ****   * @param  USBx  Selected device
 782:Drivers/STM32G4xx_HAL_Driver/Src/stm32g4xx_ll_usb.c ****   * @retval HAL status
 783:Drivers/STM32G4xx_HAL_Driver/Src/stm32g4xx_ll_usb.c ****   */
 784:Drivers/STM32G4xx_HAL_Driver/Src/stm32g4xx_ll_usb.c **** HAL_StatusTypeDef USB_DeActivateRemoteWakeup(USB_TypeDef *USBx)
 785:Drivers/STM32G4xx_HAL_Driver/Src/stm32g4xx_ll_usb.c **** {
 1598              		.loc 1 785 0
 1599              		.cfi_startproc
 1600              		@ args = 0, pretend = 0, frame = 0
 1601              		@ frame_needed = 0, uses_anonymous_args = 0
 1602              		@ link register save eliminated.
 1603              	.LVL215:
 786:Drivers/STM32G4xx_HAL_Driver/Src/stm32g4xx_ll_usb.c ****   USBx->CNTR &= (uint16_t)(~USB_CNTR_RESUME);
 1604              		.loc 1 786 0
ARM GAS  /var/folders/17/j_dgbcc52q10y0jc3c_zbwd80000gn/T//ccdhwDmV.s 			page 43


 1605 0000 B0F84030 		ldrh	r3, [r0, #64]
 1606 0004 9BB2     		uxth	r3, r3
 1607 0006 23F01003 		bic	r3, r3, #16
 1608 000a 9BB2     		uxth	r3, r3
 1609 000c A0F84030 		strh	r3, [r0, #64]	@ movhi
 787:Drivers/STM32G4xx_HAL_Driver/Src/stm32g4xx_ll_usb.c ****   return HAL_OK;
 788:Drivers/STM32G4xx_HAL_Driver/Src/stm32g4xx_ll_usb.c **** }
 1610              		.loc 1 788 0
 1611 0010 0020     		movs	r0, #0
 1612              	.LVL216:
 1613 0012 7047     		bx	lr
 1614              		.cfi_endproc
 1615              	.LFE157:
 1617              		.section	.text.USB_WritePMA,"ax",%progbits
 1618              		.align	1
 1619              		.global	USB_WritePMA
 1620              		.syntax unified
 1621              		.thumb
 1622              		.thumb_func
 1623              		.fpu fpv5-sp-d16
 1625              	USB_WritePMA:
 1626              	.LFB158:
 789:Drivers/STM32G4xx_HAL_Driver/Src/stm32g4xx_ll_usb.c **** 
 790:Drivers/STM32G4xx_HAL_Driver/Src/stm32g4xx_ll_usb.c **** /**
 791:Drivers/STM32G4xx_HAL_Driver/Src/stm32g4xx_ll_usb.c ****   * @brief Copy a buffer from user memory area to packet memory area (PMA)
 792:Drivers/STM32G4xx_HAL_Driver/Src/stm32g4xx_ll_usb.c ****   * @param   USBx USB peripheral instance register address.
 793:Drivers/STM32G4xx_HAL_Driver/Src/stm32g4xx_ll_usb.c ****   * @param   pbUsrBuf pointer to user memory area.
 794:Drivers/STM32G4xx_HAL_Driver/Src/stm32g4xx_ll_usb.c ****   * @param   wPMABufAddr address into PMA.
 795:Drivers/STM32G4xx_HAL_Driver/Src/stm32g4xx_ll_usb.c ****   * @param   wNBytes: no. of bytes to be copied.
 796:Drivers/STM32G4xx_HAL_Driver/Src/stm32g4xx_ll_usb.c ****   * @retval None
 797:Drivers/STM32G4xx_HAL_Driver/Src/stm32g4xx_ll_usb.c ****   */
 798:Drivers/STM32G4xx_HAL_Driver/Src/stm32g4xx_ll_usb.c **** void USB_WritePMA(USB_TypeDef *USBx, uint8_t *pbUsrBuf, uint16_t wPMABufAddr, uint16_t wNBytes)
 799:Drivers/STM32G4xx_HAL_Driver/Src/stm32g4xx_ll_usb.c **** {
 1627              		.loc 1 799 0
 1628              		.cfi_startproc
 1629              		@ args = 0, pretend = 0, frame = 0
 1630              		@ frame_needed = 0, uses_anonymous_args = 0
 1631              		@ link register save eliminated.
 1632              	.LVL217:
 800:Drivers/STM32G4xx_HAL_Driver/Src/stm32g4xx_ll_usb.c ****   uint32_t n = ((uint32_t)wNBytes + 1U) >> 1;
 1633              		.loc 1 800 0
 1634 0000 0133     		adds	r3, r3, #1
 1635              	.LVL218:
 1636 0002 5B08     		lsrs	r3, r3, #1
 1637              	.LVL219:
 801:Drivers/STM32G4xx_HAL_Driver/Src/stm32g4xx_ll_usb.c ****   uint32_t BaseAddr = (uint32_t)USBx;
 802:Drivers/STM32G4xx_HAL_Driver/Src/stm32g4xx_ll_usb.c ****   uint32_t i, temp1, temp2;
 803:Drivers/STM32G4xx_HAL_Driver/Src/stm32g4xx_ll_usb.c ****   __IO uint16_t *pdwVal;
 804:Drivers/STM32G4xx_HAL_Driver/Src/stm32g4xx_ll_usb.c ****   uint8_t *pBuf = pbUsrBuf;
 805:Drivers/STM32G4xx_HAL_Driver/Src/stm32g4xx_ll_usb.c **** 
 806:Drivers/STM32G4xx_HAL_Driver/Src/stm32g4xx_ll_usb.c ****   pdwVal = (__IO uint16_t *)(BaseAddr + 0x400U + ((uint32_t)wPMABufAddr * PMA_ACCESS));
 1638              		.loc 1 806 0
 1639 0004 0244     		add	r2, r2, r0
 1640              	.LVL220:
 1641 0006 02F58062 		add	r2, r2, #1024
 1642              	.LVL221:
 807:Drivers/STM32G4xx_HAL_Driver/Src/stm32g4xx_ll_usb.c **** 
ARM GAS  /var/folders/17/j_dgbcc52q10y0jc3c_zbwd80000gn/T//ccdhwDmV.s 			page 44


 808:Drivers/STM32G4xx_HAL_Driver/Src/stm32g4xx_ll_usb.c ****   for (i = n; i != 0U; i--)
 1643              		.loc 1 808 0
 1644 000a 6BB1     		cbz	r3, .L87
 799:Drivers/STM32G4xx_HAL_Driver/Src/stm32g4xx_ll_usb.c ****   uint32_t n = ((uint32_t)wNBytes + 1U) >> 1;
 1645              		.loc 1 799 0
 1646 000c 10B4     		push	{r4}
 1647              		.cfi_def_cfa_offset 4
 1648              		.cfi_offset 4, -4
 1649              	.LVL222:
 1650              	.L83:
 809:Drivers/STM32G4xx_HAL_Driver/Src/stm32g4xx_ll_usb.c ****   {
 810:Drivers/STM32G4xx_HAL_Driver/Src/stm32g4xx_ll_usb.c ****     temp1 = *pBuf;
 1651              		.loc 1 810 0 discriminator 3
 1652 000e 0C78     		ldrb	r4, [r1]	@ zero_extendqisi2
 1653              	.LVL223:
 811:Drivers/STM32G4xx_HAL_Driver/Src/stm32g4xx_ll_usb.c ****     pBuf++;
 812:Drivers/STM32G4xx_HAL_Driver/Src/stm32g4xx_ll_usb.c ****     temp2 = temp1 | ((uint16_t)((uint16_t) *pBuf << 8));
 1654              		.loc 1 812 0 discriminator 3
 1655 0010 4878     		ldrb	r0, [r1, #1]	@ zero_extendqisi2
 1656              	.LVL224:
 813:Drivers/STM32G4xx_HAL_Driver/Src/stm32g4xx_ll_usb.c ****     *pdwVal = (uint16_t)temp2;
 1657              		.loc 1 813 0 discriminator 3
 1658 0012 44EA0024 		orr	r4, r4, r0, lsl #8
 1659              	.LVL225:
 1660 0016 22F8024B 		strh	r4, [r2], #2	@ movhi
 1661              	.LVL226:
 814:Drivers/STM32G4xx_HAL_Driver/Src/stm32g4xx_ll_usb.c ****     pdwVal++;
 815:Drivers/STM32G4xx_HAL_Driver/Src/stm32g4xx_ll_usb.c **** 
 816:Drivers/STM32G4xx_HAL_Driver/Src/stm32g4xx_ll_usb.c **** #if PMA_ACCESS > 1U
 817:Drivers/STM32G4xx_HAL_Driver/Src/stm32g4xx_ll_usb.c ****     pdwVal++;
 818:Drivers/STM32G4xx_HAL_Driver/Src/stm32g4xx_ll_usb.c **** #endif
 819:Drivers/STM32G4xx_HAL_Driver/Src/stm32g4xx_ll_usb.c **** 
 820:Drivers/STM32G4xx_HAL_Driver/Src/stm32g4xx_ll_usb.c ****     pBuf++;
 1662              		.loc 1 820 0 discriminator 3
 1663 001a 0231     		adds	r1, r1, #2
 1664              	.LVL227:
 808:Drivers/STM32G4xx_HAL_Driver/Src/stm32g4xx_ll_usb.c ****   {
 1665              		.loc 1 808 0 discriminator 3
 1666 001c 013B     		subs	r3, r3, #1
 1667              	.LVL228:
 1668 001e 002B     		cmp	r3, #0
 1669 0020 F5D1     		bne	.L83
 821:Drivers/STM32G4xx_HAL_Driver/Src/stm32g4xx_ll_usb.c ****   }
 822:Drivers/STM32G4xx_HAL_Driver/Src/stm32g4xx_ll_usb.c **** }
 1670              		.loc 1 822 0
 1671 0022 5DF8044B 		ldr	r4, [sp], #4
 1672              		.cfi_restore 4
 1673              		.cfi_def_cfa_offset 0
 1674              	.LVL229:
 1675 0026 7047     		bx	lr
 1676              	.LVL230:
 1677              	.L87:
 1678 0028 7047     		bx	lr
 1679              		.cfi_endproc
 1680              	.LFE158:
 1682              		.section	.text.USB_EPStartXfer,"ax",%progbits
 1683              		.align	1
ARM GAS  /var/folders/17/j_dgbcc52q10y0jc3c_zbwd80000gn/T//ccdhwDmV.s 			page 45


 1684              		.global	USB_EPStartXfer
 1685              		.syntax unified
 1686              		.thumb
 1687              		.thumb_func
 1688              		.fpu fpv5-sp-d16
 1690              	USB_EPStartXfer:
 1691              	.LFB140:
 412:Drivers/STM32G4xx_HAL_Driver/Src/stm32g4xx_ll_usb.c ****   uint16_t pmabuffer;
 1692              		.loc 1 412 0
 1693              		.cfi_startproc
 1694              		@ args = 0, pretend = 0, frame = 0
 1695              		@ frame_needed = 0, uses_anonymous_args = 0
 1696              	.LVL231:
 1697 0000 70B5     		push	{r4, r5, r6, lr}
 1698              		.cfi_def_cfa_offset 16
 1699              		.cfi_offset 4, -16
 1700              		.cfi_offset 5, -12
 1701              		.cfi_offset 6, -8
 1702              		.cfi_offset 14, -4
 417:Drivers/STM32G4xx_HAL_Driver/Src/stm32g4xx_ll_usb.c ****   {
 1703              		.loc 1 417 0
 1704 0002 4D78     		ldrb	r5, [r1, #1]	@ zero_extendqisi2
 1705 0004 012D     		cmp	r5, #1
 1706 0006 31D0     		beq	.L129
 461:Drivers/STM32G4xx_HAL_Driver/Src/stm32g4xx_ll_usb.c ****     {
 1707              		.loc 1 461 0
 1708 0008 8A69     		ldr	r2, [r1, #24]
 1709 000a 0B69     		ldr	r3, [r1, #16]
 1710 000c 9A42     		cmp	r2, r3
 1711 000e 40F2F280 		bls	.L110
 1712              	.LVL232:
 464:Drivers/STM32G4xx_HAL_Driver/Src/stm32g4xx_ll_usb.c ****     }
 1713              		.loc 1 464 0
 1714 0012 D21A     		subs	r2, r2, r3
 1715 0014 8A61     		str	r2, [r1, #24]
 1716              	.L111:
 473:Drivers/STM32G4xx_HAL_Driver/Src/stm32g4xx_ll_usb.c ****     {
 1717              		.loc 1 473 0
 1718 0016 0A7B     		ldrb	r2, [r1, #12]	@ zero_extendqisi2
 1719 0018 002A     		cmp	r2, #0
 1720 001a 40F00881 		bne	.L112
 1721              	.LVL233:
 1722              	.LBB62:
 476:Drivers/STM32G4xx_HAL_Driver/Src/stm32g4xx_ll_usb.c ****     }
 1723              		.loc 1 476 0
 1724 001e B0F85020 		ldrh	r2, [r0, #80]
 1725 0022 0244     		add	r2, r2, r0
 1726              	.LVL234:
 1727 0024 0C78     		ldrb	r4, [r1]	@ zero_extendqisi2
 1728 0026 02EBC402 		add	r2, r2, r4, lsl #3
 1729              	.LVL235:
 1730              	.LBB63:
 1731 002a 002B     		cmp	r3, #0
 1732 002c 40F0E780 		bne	.L113
 476:Drivers/STM32G4xx_HAL_Driver/Src/stm32g4xx_ll_usb.c ****     }
 1733              		.loc 1 476 0 is_stmt 0 discriminator 1
 1734 0030 B2F80634 		ldrh	r3, [r2, #1030]
ARM GAS  /var/folders/17/j_dgbcc52q10y0jc3c_zbwd80000gn/T//ccdhwDmV.s 			page 46


 1735              	.LVL236:
 1736 0034 9BB2     		uxth	r3, r3
 1737 0036 23F4F843 		bic	r3, r3, #31744
 1738 003a 9BB2     		uxth	r3, r3
 1739 003c A2F80634 		strh	r3, [r2, #1030]	@ movhi
 1740 0040 B2F80634 		ldrh	r3, [r2, #1030]
 1741 0044 43F40043 		orr	r3, r3, #32768
 1742 0048 A2F80634 		strh	r3, [r2, #1030]	@ movhi
 1743              	.LVL237:
 1744              	.L114:
 1745              	.LBE63:
 1746              	.LBE62:
 1747              	.LBB65:
 484:Drivers/STM32G4xx_HAL_Driver/Src/stm32g4xx_ll_usb.c ****   }
 1748              		.loc 1 484 0 is_stmt 1
 1749 004c 0978     		ldrb	r1, [r1]	@ zero_extendqisi2
 1750              	.LVL238:
 1751 004e 30F82130 		ldrh	r3, [r0, r1, lsl #2]
 1752 0052 23F48043 		bic	r3, r3, #16384
 1753 0056 23F07003 		bic	r3, r3, #112
 1754              	.LVL239:
 1755 005a 83F44053 		eor	r3, r3, #12288
 1756              	.LVL240:
 1757 005e 48F28002 		movw	r2, #32896
 1758 0062 1A43     		orrs	r2, r2, r3
 1759 0064 20F82120 		strh	r2, [r0, r1, lsl #2]	@ movhi
 1760              	.LVL241:
 1761              	.L109:
 1762              	.LBE65:
 488:Drivers/STM32G4xx_HAL_Driver/Src/stm32g4xx_ll_usb.c **** 
 1763              		.loc 1 488 0
 1764 0068 0020     		movs	r0, #0
 1765 006a 70BD     		pop	{r4, r5, r6, pc}
 1766              	.LVL242:
 1767              	.L129:
 420:Drivers/STM32G4xx_HAL_Driver/Src/stm32g4xx_ll_usb.c ****     {
 1768              		.loc 1 420 0
 1769 006c 8A69     		ldr	r2, [r1, #24]
 1770 006e 0B69     		ldr	r3, [r1, #16]
 1771 0070 9A42     		cmp	r2, r3
 1772 0072 22D9     		bls	.L90
 1773              	.LVL243:
 423:Drivers/STM32G4xx_HAL_Driver/Src/stm32g4xx_ll_usb.c ****     }
 1774              		.loc 1 423 0
 1775 0074 D21A     		subs	r2, r2, r3
 1776 0076 8A61     		str	r2, [r1, #24]
 1777              	.L91:
 1778 0078 0E46     		mov	r6, r1
 1779 007a 0446     		mov	r4, r0
 432:Drivers/STM32G4xx_HAL_Driver/Src/stm32g4xx_ll_usb.c ****     {
 1780              		.loc 1 432 0
 1781 007c 0A7B     		ldrb	r2, [r1, #12]	@ zero_extendqisi2
 1782 007e 02B3     		cbz	r2, .L130
 440:Drivers/STM32G4xx_HAL_Driver/Src/stm32g4xx_ll_usb.c ****       {
 1783              		.loc 1 440 0
 1784 0080 0A78     		ldrb	r2, [r1]	@ zero_extendqisi2
 1785 0082 30F82210 		ldrh	r1, [r0, r2, lsl #2]
ARM GAS  /var/folders/17/j_dgbcc52q10y0jc3c_zbwd80000gn/T//ccdhwDmV.s 			page 47


 1786              	.LVL244:
 1787 0086 11F0400F 		tst	r1, #64
 1788 008a 6DD0     		beq	.L94
 1789              	.LVL245:
 1790              	.LBB66:
 443:Drivers/STM32G4xx_HAL_Driver/Src/stm32g4xx_ll_usb.c ****         pmabuffer = ep->pmaaddr1;
 1791              		.loc 1 443 0
 1792 008c 002D     		cmp	r5, #0
 1793 008e 3FD1     		bne	.L95
 1794              	.LVL246:
 1795              	.LBB67:
 443:Drivers/STM32G4xx_HAL_Driver/Src/stm32g4xx_ll_usb.c ****         pmabuffer = ep->pmaaddr1;
 1796              		.loc 1 443 0 is_stmt 0 discriminator 1
 1797 0090 B0F85010 		ldrh	r1, [r0, #80]
 1798 0094 0144     		add	r1, r1, r0
 1799              	.LVL247:
 1800 0096 01EBC202 		add	r2, r1, r2, lsl #3
 1801              	.LVL248:
 1802              	.LBB68:
 1803 009a 0BBB     		cbnz	r3, .L96
 443:Drivers/STM32G4xx_HAL_Driver/Src/stm32g4xx_ll_usb.c ****         pmabuffer = ep->pmaaddr1;
 1804              		.loc 1 443 0 discriminator 3
 1805 009c B2F80614 		ldrh	r1, [r2, #1030]
 1806              	.LVL249:
 1807 00a0 89B2     		uxth	r1, r1
 1808 00a2 21F4F841 		bic	r1, r1, #31744
 1809 00a6 89B2     		uxth	r1, r1
 1810 00a8 A2F80614 		strh	r1, [r2, #1030]	@ movhi
 1811 00ac B2F80614 		ldrh	r1, [r2, #1030]
 1812 00b0 41F40041 		orr	r1, r1, #32768
 1813 00b4 A2F80614 		strh	r1, [r2, #1030]	@ movhi
 1814 00b8 32E0     		b	.L97
 1815              	.LVL250:
 1816              	.L90:
 1817              	.LBE68:
 1818              	.LBE67:
 1819              	.LBE66:
 428:Drivers/STM32G4xx_HAL_Driver/Src/stm32g4xx_ll_usb.c ****     }
 1820              		.loc 1 428 0 is_stmt 1
 1821 00ba 0023     		movs	r3, #0
 1822 00bc 8B61     		str	r3, [r1, #24]
 427:Drivers/STM32G4xx_HAL_Driver/Src/stm32g4xx_ll_usb.c ****       ep->xfer_len = 0U;
 1823              		.loc 1 427 0
 1824 00be 1346     		mov	r3, r2
 1825 00c0 DAE7     		b	.L91
 1826              	.LVL251:
 1827              	.L130:
 434:Drivers/STM32G4xx_HAL_Driver/Src/stm32g4xx_ll_usb.c ****       PCD_SET_EP_TX_CNT(USBx, ep->num, len);
 1828              		.loc 1 434 0
 1829 00c2 9DB2     		uxth	r5, r3
 1830 00c4 2B46     		mov	r3, r5
 1831              	.LVL252:
 1832 00c6 CA88     		ldrh	r2, [r1, #6]
 1833 00c8 4969     		ldr	r1, [r1, #20]
 1834              	.LVL253:
 1835 00ca FFF7FEFF 		bl	USB_WritePMA
 1836              	.LVL254:
ARM GAS  /var/folders/17/j_dgbcc52q10y0jc3c_zbwd80000gn/T//ccdhwDmV.s 			page 48


 1837              	.LBB71:
 435:Drivers/STM32G4xx_HAL_Driver/Src/stm32g4xx_ll_usb.c ****     }
 1838              		.loc 1 435 0
 1839 00ce B4F85030 		ldrh	r3, [r4, #80]
 1840 00d2 2344     		add	r3, r3, r4
 1841              	.LVL255:
 1842 00d4 3278     		ldrb	r2, [r6]	@ zero_extendqisi2
 1843 00d6 03EBC203 		add	r3, r3, r2, lsl #3
 1844              	.LVL256:
 1845 00da A3F80254 		strh	r5, [r3, #1026]	@ movhi
 1846              	.LBE71:
 1847 00de 34E0     		b	.L93
 1848              	.LVL257:
 1849              	.L96:
 1850              	.LBB72:
 1851              	.LBB70:
 1852              	.LBB69:
 443:Drivers/STM32G4xx_HAL_Driver/Src/stm32g4xx_ll_usb.c ****         pmabuffer = ep->pmaaddr1;
 1853              		.loc 1 443 0 discriminator 4
 1854 00e0 3E2B     		cmp	r3, #62
 1855 00e2 09D8     		bhi	.L98
 443:Drivers/STM32G4xx_HAL_Driver/Src/stm32g4xx_ll_usb.c ****         pmabuffer = ep->pmaaddr1;
 1856              		.loc 1 443 0 is_stmt 0 discriminator 5
 1857 00e4 5908     		lsrs	r1, r3, #1
 1858              	.LVL258:
 1859 00e6 13F0010F 		tst	r3, #1
 1860 00ea 00D0     		beq	.L99
 443:Drivers/STM32G4xx_HAL_Driver/Src/stm32g4xx_ll_usb.c ****         pmabuffer = ep->pmaaddr1;
 1861              		.loc 1 443 0 discriminator 7
 1862 00ec 0131     		adds	r1, r1, #1
 1863              	.LVL259:
 1864              	.L99:
 443:Drivers/STM32G4xx_HAL_Driver/Src/stm32g4xx_ll_usb.c ****         pmabuffer = ep->pmaaddr1;
 1865              		.loc 1 443 0 discriminator 9
 1866 00ee 8902     		lsls	r1, r1, #10
 1867              	.LVL260:
 1868 00f0 89B2     		uxth	r1, r1
 1869 00f2 A2F80614 		strh	r1, [r2, #1030]	@ movhi
 1870 00f6 13E0     		b	.L97
 1871              	.LVL261:
 1872              	.L98:
 443:Drivers/STM32G4xx_HAL_Driver/Src/stm32g4xx_ll_usb.c ****         pmabuffer = ep->pmaaddr1;
 1873              		.loc 1 443 0 discriminator 6
 1874 00f8 5909     		lsrs	r1, r3, #5
 1875              	.LVL262:
 1876 00fa 13F01F0F 		tst	r3, #31
 1877 00fe 00D1     		bne	.L100
 443:Drivers/STM32G4xx_HAL_Driver/Src/stm32g4xx_ll_usb.c ****         pmabuffer = ep->pmaaddr1;
 1878              		.loc 1 443 0 discriminator 10
 1879 0100 0139     		subs	r1, r1, #1
 1880              	.LVL263:
 1881              	.L100:
 443:Drivers/STM32G4xx_HAL_Driver/Src/stm32g4xx_ll_usb.c ****         pmabuffer = ep->pmaaddr1;
 1882              		.loc 1 443 0 discriminator 12
 1883 0102 8902     		lsls	r1, r1, #10
 1884              	.LVL264:
 1885 0104 89B2     		uxth	r1, r1
ARM GAS  /var/folders/17/j_dgbcc52q10y0jc3c_zbwd80000gn/T//ccdhwDmV.s 			page 49


 1886 0106 41F40041 		orr	r1, r1, #32768
 1887 010a A2F80614 		strh	r1, [r2, #1030]	@ movhi
 1888 010e 07E0     		b	.L97
 1889              	.LVL265:
 1890              	.L95:
 1891              	.LBE69:
 1892              	.LBE70:
 443:Drivers/STM32G4xx_HAL_Driver/Src/stm32g4xx_ll_usb.c ****         pmabuffer = ep->pmaaddr1;
 1893              		.loc 1 443 0 discriminator 13
 1894 0110 B0F85010 		ldrh	r1, [r0, #80]
 1895 0114 0144     		add	r1, r1, r0
 1896              	.LVL266:
 1897 0116 01EBC202 		add	r2, r1, r2, lsl #3
 1898              	.LVL267:
 1899 011a 99B2     		uxth	r1, r3
 1900              	.LVL268:
 1901 011c A2F80614 		strh	r1, [r2, #1030]	@ movhi
 1902              	.LVL269:
 1903              	.L97:
 1904              	.LBE72:
 444:Drivers/STM32G4xx_HAL_Driver/Src/stm32g4xx_ll_usb.c ****       }
 1905              		.loc 1 444 0 is_stmt 1
 1906 0120 7289     		ldrh	r2, [r6, #10]
 1907              	.LVL270:
 1908              	.L101:
 452:Drivers/STM32G4xx_HAL_Driver/Src/stm32g4xx_ll_usb.c ****       PCD_FreeUserBuffer(USBx, ep->num, ep->is_in);
 1909              		.loc 1 452 0
 1910 0122 9BB2     		uxth	r3, r3
 1911              	.LVL271:
 1912 0124 7169     		ldr	r1, [r6, #20]
 1913 0126 2046     		mov	r0, r4
 1914              	.LVL272:
 1915 0128 FFF7FEFF 		bl	USB_WritePMA
 1916              	.LVL273:
 453:Drivers/STM32G4xx_HAL_Driver/Src/stm32g4xx_ll_usb.c ****     }
 1917              		.loc 1 453 0
 1918 012c 7378     		ldrb	r3, [r6, #1]	@ zero_extendqisi2
 1919 012e 002B     		cmp	r3, #0
 1920 0130 52D1     		bne	.L108
 1921              	.LBB73:
 453:Drivers/STM32G4xx_HAL_Driver/Src/stm32g4xx_ll_usb.c ****     }
 1922              		.loc 1 453 0 is_stmt 0 discriminator 1
 1923 0132 3178     		ldrb	r1, [r6]	@ zero_extendqisi2
 1924 0134 34F82120 		ldrh	r2, [r4, r1, lsl #2]
 1925 0138 22F4E042 		bic	r2, r2, #28672
 1926 013c 22F07002 		bic	r2, r2, #112
 1927              	.LVL274:
 1928 0140 48F2C003 		movw	r3, #32960
 1929 0144 1343     		orrs	r3, r3, r2
 1930 0146 24F82130 		strh	r3, [r4, r1, lsl #2]	@ movhi
 1931              	.LVL275:
 1932              	.L93:
 1933              	.LBE73:
 1934              	.LBB74:
 456:Drivers/STM32G4xx_HAL_Driver/Src/stm32g4xx_ll_usb.c ****   }
 1935              		.loc 1 456 0 is_stmt 1
 1936 014a 3178     		ldrb	r1, [r6]	@ zero_extendqisi2
ARM GAS  /var/folders/17/j_dgbcc52q10y0jc3c_zbwd80000gn/T//ccdhwDmV.s 			page 50


 1937 014c 34F82130 		ldrh	r3, [r4, r1, lsl #2]
 1938 0150 23F4E043 		bic	r3, r3, #28672
 1939 0154 23F04003 		bic	r3, r3, #64
 1940              	.LVL276:
 1941 0158 83F03003 		eor	r3, r3, #48
 1942              	.LVL277:
 1943 015c 48F28002 		movw	r2, #32896
 1944 0160 1A43     		orrs	r2, r2, r3
 1945 0162 24F82120 		strh	r2, [r4, r1, lsl #2]	@ movhi
 1946              	.LBE74:
 1947 0166 7FE7     		b	.L109
 1948              	.LVL278:
 1949              	.L94:
 449:Drivers/STM32G4xx_HAL_Driver/Src/stm32g4xx_ll_usb.c ****         pmabuffer = ep->pmaaddr0;
 1950              		.loc 1 449 0
 1951 0168 65BB     		cbnz	r5, .L102
 1952              	.LVL279:
 1953              	.LBB75:
 449:Drivers/STM32G4xx_HAL_Driver/Src/stm32g4xx_ll_usb.c ****         pmabuffer = ep->pmaaddr0;
 1954              		.loc 1 449 0 is_stmt 0 discriminator 1
 1955 016a B0F85010 		ldrh	r1, [r0, #80]
 1956 016e 0144     		add	r1, r1, r0
 1957              	.LVL280:
 1958 0170 01EBC202 		add	r2, r1, r2, lsl #3
 1959              	.LVL281:
 1960              	.LBB76:
 1961 0174 73B9     		cbnz	r3, .L103
 449:Drivers/STM32G4xx_HAL_Driver/Src/stm32g4xx_ll_usb.c ****         pmabuffer = ep->pmaaddr0;
 1962              		.loc 1 449 0 discriminator 3
 1963 0176 B2F80214 		ldrh	r1, [r2, #1026]
 1964              	.LVL282:
 1965 017a 89B2     		uxth	r1, r1
 1966 017c 21F4F841 		bic	r1, r1, #31744
 1967 0180 89B2     		uxth	r1, r1
 1968 0182 A2F80214 		strh	r1, [r2, #1026]	@ movhi
 1969 0186 B2F80214 		ldrh	r1, [r2, #1026]
 1970 018a 41F40041 		orr	r1, r1, #32768
 1971 018e A2F80214 		strh	r1, [r2, #1026]	@ movhi
 1972 0192 1FE0     		b	.L104
 1973              	.LVL283:
 1974              	.L103:
 449:Drivers/STM32G4xx_HAL_Driver/Src/stm32g4xx_ll_usb.c ****         pmabuffer = ep->pmaaddr0;
 1975              		.loc 1 449 0 discriminator 4
 1976 0194 3E2B     		cmp	r3, #62
 1977 0196 09D8     		bhi	.L105
 449:Drivers/STM32G4xx_HAL_Driver/Src/stm32g4xx_ll_usb.c ****         pmabuffer = ep->pmaaddr0;
 1978              		.loc 1 449 0 discriminator 5
 1979 0198 5908     		lsrs	r1, r3, #1
 1980              	.LVL284:
 1981 019a 13F0010F 		tst	r3, #1
 1982 019e 00D0     		beq	.L106
 449:Drivers/STM32G4xx_HAL_Driver/Src/stm32g4xx_ll_usb.c ****         pmabuffer = ep->pmaaddr0;
 1983              		.loc 1 449 0 discriminator 7
 1984 01a0 0131     		adds	r1, r1, #1
 1985              	.LVL285:
 1986              	.L106:
 449:Drivers/STM32G4xx_HAL_Driver/Src/stm32g4xx_ll_usb.c ****         pmabuffer = ep->pmaaddr0;
ARM GAS  /var/folders/17/j_dgbcc52q10y0jc3c_zbwd80000gn/T//ccdhwDmV.s 			page 51


 1987              		.loc 1 449 0 discriminator 9
 1988 01a2 8902     		lsls	r1, r1, #10
 1989              	.LVL286:
 1990 01a4 89B2     		uxth	r1, r1
 1991 01a6 A2F80214 		strh	r1, [r2, #1026]	@ movhi
 1992 01aa 13E0     		b	.L104
 1993              	.LVL287:
 1994              	.L105:
 449:Drivers/STM32G4xx_HAL_Driver/Src/stm32g4xx_ll_usb.c ****         pmabuffer = ep->pmaaddr0;
 1995              		.loc 1 449 0 discriminator 6
 1996 01ac 5909     		lsrs	r1, r3, #5
 1997              	.LVL288:
 1998 01ae 13F01F0F 		tst	r3, #31
 1999 01b2 00D1     		bne	.L107
 449:Drivers/STM32G4xx_HAL_Driver/Src/stm32g4xx_ll_usb.c ****         pmabuffer = ep->pmaaddr0;
 2000              		.loc 1 449 0 discriminator 10
 2001 01b4 0139     		subs	r1, r1, #1
 2002              	.LVL289:
 2003              	.L107:
 449:Drivers/STM32G4xx_HAL_Driver/Src/stm32g4xx_ll_usb.c ****         pmabuffer = ep->pmaaddr0;
 2004              		.loc 1 449 0 discriminator 12
 2005 01b6 8902     		lsls	r1, r1, #10
 2006              	.LVL290:
 2007 01b8 89B2     		uxth	r1, r1
 2008 01ba 41F40041 		orr	r1, r1, #32768
 2009 01be A2F80214 		strh	r1, [r2, #1026]	@ movhi
 2010 01c2 07E0     		b	.L104
 2011              	.LVL291:
 2012              	.L102:
 2013              	.LBE76:
 2014              	.LBE75:
 2015              	.LBB77:
 449:Drivers/STM32G4xx_HAL_Driver/Src/stm32g4xx_ll_usb.c ****         pmabuffer = ep->pmaaddr0;
 2016              		.loc 1 449 0 discriminator 13
 2017 01c4 B0F85010 		ldrh	r1, [r0, #80]
 2018 01c8 0144     		add	r1, r1, r0
 2019              	.LVL292:
 2020 01ca 01EBC202 		add	r2, r1, r2, lsl #3
 2021              	.LVL293:
 2022 01ce 99B2     		uxth	r1, r3
 2023              	.LVL294:
 2024 01d0 A2F80214 		strh	r1, [r2, #1026]	@ movhi
 2025              	.LVL295:
 2026              	.L104:
 2027              	.LBE77:
 450:Drivers/STM32G4xx_HAL_Driver/Src/stm32g4xx_ll_usb.c ****       }
 2028              		.loc 1 450 0 is_stmt 1
 2029 01d4 3289     		ldrh	r2, [r6, #8]
 2030              	.LVL296:
 2031 01d6 A4E7     		b	.L101
 2032              	.LVL297:
 2033              	.L108:
 453:Drivers/STM32G4xx_HAL_Driver/Src/stm32g4xx_ll_usb.c ****     }
 2034              		.loc 1 453 0 discriminator 2
 2035 01d8 012B     		cmp	r3, #1
 2036 01da B6D1     		bne	.L93
 2037              	.LBB78:
ARM GAS  /var/folders/17/j_dgbcc52q10y0jc3c_zbwd80000gn/T//ccdhwDmV.s 			page 52


 453:Drivers/STM32G4xx_HAL_Driver/Src/stm32g4xx_ll_usb.c ****     }
 2038              		.loc 1 453 0 is_stmt 0 discriminator 3
 2039 01dc 3178     		ldrb	r1, [r6]	@ zero_extendqisi2
 2040 01de 34F82120 		ldrh	r2, [r4, r1, lsl #2]
 2041 01e2 22F4E042 		bic	r2, r2, #28672
 2042 01e6 22F07002 		bic	r2, r2, #112
 2043              	.LVL298:
 2044 01ea 4CF28003 		movw	r3, #49280
 2045 01ee 1343     		orrs	r3, r3, r2
 2046 01f0 24F82130 		strh	r3, [r4, r1, lsl #2]	@ movhi
 2047 01f4 A9E7     		b	.L93
 2048              	.LVL299:
 2049              	.L110:
 2050              	.LBE78:
 469:Drivers/STM32G4xx_HAL_Driver/Src/stm32g4xx_ll_usb.c ****     }
 2051              		.loc 1 469 0 is_stmt 1
 2052 01f6 0023     		movs	r3, #0
 2053 01f8 8B61     		str	r3, [r1, #24]
 468:Drivers/STM32G4xx_HAL_Driver/Src/stm32g4xx_ll_usb.c ****       ep->xfer_len = 0U;
 2054              		.loc 1 468 0
 2055 01fa 1346     		mov	r3, r2
 2056 01fc 0BE7     		b	.L111
 2057              	.LVL300:
 2058              	.L113:
 2059              	.LBB79:
 2060              	.LBB64:
 476:Drivers/STM32G4xx_HAL_Driver/Src/stm32g4xx_ll_usb.c ****     }
 2061              		.loc 1 476 0 discriminator 2
 2062 01fe 3E2B     		cmp	r3, #62
 2063 0200 09D8     		bhi	.L115
 476:Drivers/STM32G4xx_HAL_Driver/Src/stm32g4xx_ll_usb.c ****     }
 2064              		.loc 1 476 0 is_stmt 0 discriminator 3
 2065 0202 5C08     		lsrs	r4, r3, #1
 2066              	.LVL301:
 2067 0204 13F0010F 		tst	r3, #1
 2068 0208 00D0     		beq	.L116
 476:Drivers/STM32G4xx_HAL_Driver/Src/stm32g4xx_ll_usb.c ****     }
 2069              		.loc 1 476 0 discriminator 5
 2070 020a 0134     		adds	r4, r4, #1
 2071              	.LVL302:
 2072              	.L116:
 476:Drivers/STM32G4xx_HAL_Driver/Src/stm32g4xx_ll_usb.c ****     }
 2073              		.loc 1 476 0 discriminator 7
 2074 020c A402     		lsls	r4, r4, #10
 2075              	.LVL303:
 2076 020e A4B2     		uxth	r4, r4
 2077 0210 A2F80644 		strh	r4, [r2, #1030]	@ movhi
 2078 0214 1AE7     		b	.L114
 2079              	.L115:
 476:Drivers/STM32G4xx_HAL_Driver/Src/stm32g4xx_ll_usb.c ****     }
 2080              		.loc 1 476 0 discriminator 4
 2081 0216 5C09     		lsrs	r4, r3, #5
 2082              	.LVL304:
 2083 0218 13F01F0F 		tst	r3, #31
 2084 021c 00D1     		bne	.L117
 476:Drivers/STM32G4xx_HAL_Driver/Src/stm32g4xx_ll_usb.c ****     }
 2085              		.loc 1 476 0 discriminator 8
ARM GAS  /var/folders/17/j_dgbcc52q10y0jc3c_zbwd80000gn/T//ccdhwDmV.s 			page 53


 2086 021e 013C     		subs	r4, r4, #1
 2087              	.LVL305:
 2088              	.L117:
 476:Drivers/STM32G4xx_HAL_Driver/Src/stm32g4xx_ll_usb.c ****     }
 2089              		.loc 1 476 0 discriminator 10
 2090 0220 A402     		lsls	r4, r4, #10
 2091              	.LVL306:
 2092 0222 A4B2     		uxth	r4, r4
 2093 0224 44F40044 		orr	r4, r4, #32768
 2094 0228 A2F80644 		strh	r4, [r2, #1030]	@ movhi
 2095 022c 0EE7     		b	.L114
 2096              	.LVL307:
 2097              	.L112:
 2098              	.LBE64:
 2099              	.LBE79:
 481:Drivers/STM32G4xx_HAL_Driver/Src/stm32g4xx_ll_usb.c ****     }
 2100              		.loc 1 481 0 is_stmt 1
 2101 022e A5B9     		cbnz	r5, .L118
 2102              	.LVL308:
 2103              	.LBB80:
 481:Drivers/STM32G4xx_HAL_Driver/Src/stm32g4xx_ll_usb.c ****     }
 2104              		.loc 1 481 0 is_stmt 0 discriminator 1
 2105 0230 B0F85020 		ldrh	r2, [r0, #80]
 2106 0234 0244     		add	r2, r2, r0
 2107              	.LVL309:
 2108 0236 0C78     		ldrb	r4, [r1]	@ zero_extendqisi2
 2109 0238 02EBC402 		add	r2, r2, r4, lsl #3
 2110              	.LVL310:
 2111              	.LBB81:
 2112 023c 33BB     		cbnz	r3, .L119
 481:Drivers/STM32G4xx_HAL_Driver/Src/stm32g4xx_ll_usb.c ****     }
 2113              		.loc 1 481 0 discriminator 3
 2114 023e B2F80244 		ldrh	r4, [r2, #1026]
 2115 0242 A4B2     		uxth	r4, r4
 2116 0244 24F4F844 		bic	r4, r4, #31744
 2117 0248 A4B2     		uxth	r4, r4
 2118 024a A2F80244 		strh	r4, [r2, #1026]	@ movhi
 2119 024e B2F80244 		ldrh	r4, [r2, #1026]
 2120 0252 44F40044 		orr	r4, r4, #32768
 2121 0256 A2F80244 		strh	r4, [r2, #1026]	@ movhi
 2122              	.LVL311:
 2123              	.L118:
 2124              	.LBE81:
 2125              	.LBE80:
 2126              	.LBB83:
 481:Drivers/STM32G4xx_HAL_Driver/Src/stm32g4xx_ll_usb.c ****     }
 2127              		.loc 1 481 0 discriminator 15
 2128 025a 4A78     		ldrb	r2, [r1, #1]	@ zero_extendqisi2
 2129 025c 002A     		cmp	r2, #0
 2130 025e 45D1     		bne	.L123
 2131              	.LVL312:
 2132              	.LBB84:
 481:Drivers/STM32G4xx_HAL_Driver/Src/stm32g4xx_ll_usb.c ****     }
 2133              		.loc 1 481 0 discriminator 16
 2134 0260 B0F85020 		ldrh	r2, [r0, #80]
 2135 0264 0244     		add	r2, r2, r0
 2136              	.LVL313:
ARM GAS  /var/folders/17/j_dgbcc52q10y0jc3c_zbwd80000gn/T//ccdhwDmV.s 			page 54


 2137 0266 0C78     		ldrb	r4, [r1]	@ zero_extendqisi2
 2138 0268 02EBC402 		add	r2, r2, r4, lsl #3
 2139              	.LVL314:
 2140              	.LBB85:
 2141 026c 33BB     		cbnz	r3, .L124
 481:Drivers/STM32G4xx_HAL_Driver/Src/stm32g4xx_ll_usb.c ****     }
 2142              		.loc 1 481 0 discriminator 18
 2143 026e B2F80634 		ldrh	r3, [r2, #1030]
 2144              	.LVL315:
 2145 0272 9BB2     		uxth	r3, r3
 2146 0274 23F4F843 		bic	r3, r3, #31744
 2147 0278 9BB2     		uxth	r3, r3
 2148 027a A2F80634 		strh	r3, [r2, #1030]	@ movhi
 2149 027e B2F80634 		ldrh	r3, [r2, #1030]
 2150 0282 43F40043 		orr	r3, r3, #32768
 2151 0286 A2F80634 		strh	r3, [r2, #1030]	@ movhi
 2152 028a DFE6     		b	.L114
 2153              	.LVL316:
 2154              	.L119:
 2155              	.LBE85:
 2156              	.LBE84:
 2157              	.LBE83:
 2158              	.LBB88:
 2159              	.LBB82:
 481:Drivers/STM32G4xx_HAL_Driver/Src/stm32g4xx_ll_usb.c ****     }
 2160              		.loc 1 481 0 discriminator 4
 2161 028c 3E2B     		cmp	r3, #62
 2162 028e 09D8     		bhi	.L120
 481:Drivers/STM32G4xx_HAL_Driver/Src/stm32g4xx_ll_usb.c ****     }
 2163              		.loc 1 481 0 discriminator 5
 2164 0290 5C08     		lsrs	r4, r3, #1
 2165              	.LVL317:
 2166 0292 13F0010F 		tst	r3, #1
 2167 0296 00D0     		beq	.L121
 481:Drivers/STM32G4xx_HAL_Driver/Src/stm32g4xx_ll_usb.c ****     }
 2168              		.loc 1 481 0 discriminator 7
 2169 0298 0134     		adds	r4, r4, #1
 2170              	.LVL318:
 2171              	.L121:
 481:Drivers/STM32G4xx_HAL_Driver/Src/stm32g4xx_ll_usb.c ****     }
 2172              		.loc 1 481 0 discriminator 9
 2173 029a A402     		lsls	r4, r4, #10
 2174              	.LVL319:
 2175 029c A4B2     		uxth	r4, r4
 2176 029e A2F80244 		strh	r4, [r2, #1026]	@ movhi
 2177 02a2 DAE7     		b	.L118
 2178              	.L120:
 481:Drivers/STM32G4xx_HAL_Driver/Src/stm32g4xx_ll_usb.c ****     }
 2179              		.loc 1 481 0 discriminator 6
 2180 02a4 5C09     		lsrs	r4, r3, #5
 2181              	.LVL320:
 2182 02a6 13F01F0F 		tst	r3, #31
 2183 02aa 00D1     		bne	.L122
 481:Drivers/STM32G4xx_HAL_Driver/Src/stm32g4xx_ll_usb.c ****     }
 2184              		.loc 1 481 0 discriminator 10
 2185 02ac 013C     		subs	r4, r4, #1
 2186              	.LVL321:
ARM GAS  /var/folders/17/j_dgbcc52q10y0jc3c_zbwd80000gn/T//ccdhwDmV.s 			page 55


 2187              	.L122:
 481:Drivers/STM32G4xx_HAL_Driver/Src/stm32g4xx_ll_usb.c ****     }
 2188              		.loc 1 481 0 discriminator 12
 2189 02ae A402     		lsls	r4, r4, #10
 2190              	.LVL322:
 2191 02b0 A4B2     		uxth	r4, r4
 2192 02b2 44F40044 		orr	r4, r4, #32768
 2193 02b6 A2F80244 		strh	r4, [r2, #1026]	@ movhi
 2194 02ba CEE7     		b	.L118
 2195              	.LVL323:
 2196              	.L124:
 2197              	.LBE82:
 2198              	.LBE88:
 2199              	.LBB89:
 2200              	.LBB87:
 2201              	.LBB86:
 481:Drivers/STM32G4xx_HAL_Driver/Src/stm32g4xx_ll_usb.c ****     }
 2202              		.loc 1 481 0 discriminator 19
 2203 02bc 3E2B     		cmp	r3, #62
 2204 02be 09D8     		bhi	.L125
 481:Drivers/STM32G4xx_HAL_Driver/Src/stm32g4xx_ll_usb.c ****     }
 2205              		.loc 1 481 0 discriminator 20
 2206 02c0 5C08     		lsrs	r4, r3, #1
 2207              	.LVL324:
 2208 02c2 13F0010F 		tst	r3, #1
 2209 02c6 00D0     		beq	.L126
 481:Drivers/STM32G4xx_HAL_Driver/Src/stm32g4xx_ll_usb.c ****     }
 2210              		.loc 1 481 0 discriminator 22
 2211 02c8 0134     		adds	r4, r4, #1
 2212              	.LVL325:
 2213              	.L126:
 481:Drivers/STM32G4xx_HAL_Driver/Src/stm32g4xx_ll_usb.c ****     }
 2214              		.loc 1 481 0 discriminator 24
 2215 02ca A402     		lsls	r4, r4, #10
 2216              	.LVL326:
 2217 02cc A4B2     		uxth	r4, r4
 2218 02ce A2F80644 		strh	r4, [r2, #1030]	@ movhi
 2219 02d2 BBE6     		b	.L114
 2220              	.L125:
 481:Drivers/STM32G4xx_HAL_Driver/Src/stm32g4xx_ll_usb.c ****     }
 2221              		.loc 1 481 0 discriminator 21
 2222 02d4 5C09     		lsrs	r4, r3, #5
 2223              	.LVL327:
 2224 02d6 13F01F0F 		tst	r3, #31
 2225 02da 00D1     		bne	.L127
 481:Drivers/STM32G4xx_HAL_Driver/Src/stm32g4xx_ll_usb.c ****     }
 2226              		.loc 1 481 0 discriminator 25
 2227 02dc 013C     		subs	r4, r4, #1
 2228              	.LVL328:
 2229              	.L127:
 481:Drivers/STM32G4xx_HAL_Driver/Src/stm32g4xx_ll_usb.c ****     }
 2230              		.loc 1 481 0 discriminator 27
 2231 02de A302     		lsls	r3, r4, #10
 2232              	.LVL329:
 2233 02e0 9BB2     		uxth	r3, r3
 2234 02e2 43F40043 		orr	r3, r3, #32768
 2235 02e6 A2F80634 		strh	r3, [r2, #1030]	@ movhi
ARM GAS  /var/folders/17/j_dgbcc52q10y0jc3c_zbwd80000gn/T//ccdhwDmV.s 			page 56


 2236 02ea AFE6     		b	.L114
 2237              	.LVL330:
 2238              	.L123:
 2239              	.LBE86:
 2240              	.LBE87:
 481:Drivers/STM32G4xx_HAL_Driver/Src/stm32g4xx_ll_usb.c ****     }
 2241              		.loc 1 481 0 discriminator 17
 2242 02ec 012A     		cmp	r2, #1
 2243 02ee 7FF4ADAE 		bne	.L114
 481:Drivers/STM32G4xx_HAL_Driver/Src/stm32g4xx_ll_usb.c ****     }
 2244              		.loc 1 481 0 discriminator 28
 2245 02f2 B0F85020 		ldrh	r2, [r0, #80]
 2246 02f6 0244     		add	r2, r2, r0
 2247              	.LVL331:
 2248 02f8 0C78     		ldrb	r4, [r1]	@ zero_extendqisi2
 2249 02fa 02EBC402 		add	r2, r2, r4, lsl #3
 2250              	.LVL332:
 2251 02fe 9BB2     		uxth	r3, r3
 2252              	.LVL333:
 2253 0300 A2F80634 		strh	r3, [r2, #1030]	@ movhi
 2254 0304 A2E6     		b	.L114
 2255              	.LBE89:
 2256              		.cfi_endproc
 2257              	.LFE140:
 2259              		.section	.text.USB_ReadPMA,"ax",%progbits
 2260              		.align	1
 2261              		.global	USB_ReadPMA
 2262              		.syntax unified
 2263              		.thumb
 2264              		.thumb_func
 2265              		.fpu fpv5-sp-d16
 2267              	USB_ReadPMA:
 2268              	.LFB159:
 823:Drivers/STM32G4xx_HAL_Driver/Src/stm32g4xx_ll_usb.c **** 
 824:Drivers/STM32G4xx_HAL_Driver/Src/stm32g4xx_ll_usb.c **** /**
 825:Drivers/STM32G4xx_HAL_Driver/Src/stm32g4xx_ll_usb.c ****   * @brief Copy a buffer from user memory area to packet memory area (PMA)
 826:Drivers/STM32G4xx_HAL_Driver/Src/stm32g4xx_ll_usb.c ****   * @param   USBx: USB peripheral instance register address.
 827:Drivers/STM32G4xx_HAL_Driver/Src/stm32g4xx_ll_usb.c ****   * @param   pbUsrBuf pointer to user memory area.
 828:Drivers/STM32G4xx_HAL_Driver/Src/stm32g4xx_ll_usb.c ****   * @param   wPMABufAddr address into PMA.
 829:Drivers/STM32G4xx_HAL_Driver/Src/stm32g4xx_ll_usb.c ****   * @param   wNBytes: no. of bytes to be copied.
 830:Drivers/STM32G4xx_HAL_Driver/Src/stm32g4xx_ll_usb.c ****   * @retval None
 831:Drivers/STM32G4xx_HAL_Driver/Src/stm32g4xx_ll_usb.c ****   */
 832:Drivers/STM32G4xx_HAL_Driver/Src/stm32g4xx_ll_usb.c **** void USB_ReadPMA(USB_TypeDef *USBx, uint8_t *pbUsrBuf, uint16_t wPMABufAddr, uint16_t wNBytes)
 833:Drivers/STM32G4xx_HAL_Driver/Src/stm32g4xx_ll_usb.c **** {
 2269              		.loc 1 833 0 is_stmt 1
 2270              		.cfi_startproc
 2271              		@ args = 0, pretend = 0, frame = 0
 2272              		@ frame_needed = 0, uses_anonymous_args = 0
 2273              		@ link register save eliminated.
 2274              	.LVL334:
 2275 0000 30B4     		push	{r4, r5}
 2276              		.cfi_def_cfa_offset 8
 2277              		.cfi_offset 4, -8
 2278              		.cfi_offset 5, -4
 834:Drivers/STM32G4xx_HAL_Driver/Src/stm32g4xx_ll_usb.c ****   uint32_t n = (uint32_t)wNBytes >> 1;
 2279              		.loc 1 834 0
 2280 0002 5D08     		lsrs	r5, r3, #1
ARM GAS  /var/folders/17/j_dgbcc52q10y0jc3c_zbwd80000gn/T//ccdhwDmV.s 			page 57


 2281              	.LVL335:
 835:Drivers/STM32G4xx_HAL_Driver/Src/stm32g4xx_ll_usb.c ****   uint32_t BaseAddr = (uint32_t)USBx;
 836:Drivers/STM32G4xx_HAL_Driver/Src/stm32g4xx_ll_usb.c ****   uint32_t i, temp;
 837:Drivers/STM32G4xx_HAL_Driver/Src/stm32g4xx_ll_usb.c ****   __IO uint16_t *pdwVal;
 838:Drivers/STM32G4xx_HAL_Driver/Src/stm32g4xx_ll_usb.c ****   uint8_t *pBuf = pbUsrBuf;
 839:Drivers/STM32G4xx_HAL_Driver/Src/stm32g4xx_ll_usb.c **** 
 840:Drivers/STM32G4xx_HAL_Driver/Src/stm32g4xx_ll_usb.c ****   pdwVal = (__IO uint16_t *)(BaseAddr + 0x400U + ((uint32_t)wPMABufAddr * PMA_ACCESS));
 2282              		.loc 1 840 0
 2283 0004 0244     		add	r2, r2, r0
 2284              	.LVL336:
 2285 0006 02F58062 		add	r2, r2, #1024
 2286              	.LVL337:
 841:Drivers/STM32G4xx_HAL_Driver/Src/stm32g4xx_ll_usb.c **** 
 842:Drivers/STM32G4xx_HAL_Driver/Src/stm32g4xx_ll_usb.c ****   for (i = n; i != 0U; i--)
 2287              		.loc 1 842 0
 2288 000a 07E0     		b	.L132
 2289              	.LVL338:
 2290              	.L133:
 843:Drivers/STM32G4xx_HAL_Driver/Src/stm32g4xx_ll_usb.c ****   {
 844:Drivers/STM32G4xx_HAL_Driver/Src/stm32g4xx_ll_usb.c ****     temp = *(__IO uint16_t *)pdwVal;
 2291              		.loc 1 844 0 discriminator 3
 2292 000c 32F8024B 		ldrh	r4, [r2], #2
 2293              	.LVL339:
 2294 0010 A4B2     		uxth	r4, r4
 2295              	.LVL340:
 845:Drivers/STM32G4xx_HAL_Driver/Src/stm32g4xx_ll_usb.c ****     pdwVal++;
 846:Drivers/STM32G4xx_HAL_Driver/Src/stm32g4xx_ll_usb.c ****     *pBuf = (uint8_t)((temp >> 0) & 0xFFU);
 2296              		.loc 1 846 0 discriminator 3
 2297 0012 0C70     		strb	r4, [r1]
 2298              	.LVL341:
 847:Drivers/STM32G4xx_HAL_Driver/Src/stm32g4xx_ll_usb.c ****     pBuf++;
 848:Drivers/STM32G4xx_HAL_Driver/Src/stm32g4xx_ll_usb.c ****     *pBuf = (uint8_t)((temp >> 8) & 0xFFU);
 2299              		.loc 1 848 0 discriminator 3
 2300 0014 240A     		lsrs	r4, r4, #8
 2301              	.LVL342:
 2302 0016 4C70     		strb	r4, [r1, #1]
 849:Drivers/STM32G4xx_HAL_Driver/Src/stm32g4xx_ll_usb.c ****     pBuf++;
 2303              		.loc 1 849 0 discriminator 3
 2304 0018 0231     		adds	r1, r1, #2
 2305              	.LVL343:
 842:Drivers/STM32G4xx_HAL_Driver/Src/stm32g4xx_ll_usb.c ****   {
 2306              		.loc 1 842 0 discriminator 3
 2307 001a 013D     		subs	r5, r5, #1
 2308              	.LVL344:
 2309              	.L132:
 842:Drivers/STM32G4xx_HAL_Driver/Src/stm32g4xx_ll_usb.c ****   {
 2310              		.loc 1 842 0 is_stmt 0 discriminator 1
 2311 001c 002D     		cmp	r5, #0
 2312 001e F5D1     		bne	.L133
 850:Drivers/STM32G4xx_HAL_Driver/Src/stm32g4xx_ll_usb.c **** 
 851:Drivers/STM32G4xx_HAL_Driver/Src/stm32g4xx_ll_usb.c **** #if PMA_ACCESS > 1U
 852:Drivers/STM32G4xx_HAL_Driver/Src/stm32g4xx_ll_usb.c ****     pdwVal++;
 853:Drivers/STM32G4xx_HAL_Driver/Src/stm32g4xx_ll_usb.c **** #endif
 854:Drivers/STM32G4xx_HAL_Driver/Src/stm32g4xx_ll_usb.c ****   }
 855:Drivers/STM32G4xx_HAL_Driver/Src/stm32g4xx_ll_usb.c **** 
 856:Drivers/STM32G4xx_HAL_Driver/Src/stm32g4xx_ll_usb.c ****   if ((wNBytes % 2U) != 0U)
 2313              		.loc 1 856 0 is_stmt 1
ARM GAS  /var/folders/17/j_dgbcc52q10y0jc3c_zbwd80000gn/T//ccdhwDmV.s 			page 58


 2314 0020 13F0010F 		tst	r3, #1
 2315 0024 01D0     		beq	.L131
 857:Drivers/STM32G4xx_HAL_Driver/Src/stm32g4xx_ll_usb.c ****   {
 858:Drivers/STM32G4xx_HAL_Driver/Src/stm32g4xx_ll_usb.c ****     temp = *pdwVal;
 2316              		.loc 1 858 0
 2317 0026 1388     		ldrh	r3, [r2]
 2318              	.LVL345:
 859:Drivers/STM32G4xx_HAL_Driver/Src/stm32g4xx_ll_usb.c ****     *pBuf = (uint8_t)((temp >> 0) & 0xFFU);
 2319              		.loc 1 859 0
 2320 0028 0B70     		strb	r3, [r1]
 2321              	.LVL346:
 2322              	.L131:
 860:Drivers/STM32G4xx_HAL_Driver/Src/stm32g4xx_ll_usb.c ****   }
 861:Drivers/STM32G4xx_HAL_Driver/Src/stm32g4xx_ll_usb.c **** }
 2323              		.loc 1 861 0
 2324 002a 30BC     		pop	{r4, r5}
 2325              		.cfi_restore 5
 2326              		.cfi_restore 4
 2327              		.cfi_def_cfa_offset 0
 2328              	.LVL347:
 2329 002c 7047     		bx	lr
 2330              		.cfi_endproc
 2331              	.LFE159:
 2333              		.text
 2334              	.Letext0:
 2335              		.file 2 "/Users/grantham/packages/gcc-arm-none-eabi-7-2018-q2-update/arm-none-eabi/include/machine
 2336              		.file 3 "/Users/grantham/packages/gcc-arm-none-eabi-7-2018-q2-update/arm-none-eabi/include/sys/_st
 2337              		.file 4 "Drivers/CMSIS/Include/core_cm4.h"
 2338              		.file 5 "Drivers/CMSIS/Device/ST/STM32G4xx/Include/system_stm32g4xx.h"
 2339              		.file 6 "Drivers/CMSIS/Device/ST/STM32G4xx/Include/stm32g431xx.h"
 2340              		.file 7 "Drivers/STM32G4xx_HAL_Driver/Inc/stm32g4xx_hal_def.h"
 2341              		.file 8 "Drivers/STM32G4xx_HAL_Driver/Inc/stm32g4xx_hal_flash.h"
 2342              		.file 9 "Drivers/STM32G4xx_HAL_Driver/Inc/stm32g4xx_ll_usb.h"
 2343              		.file 10 "Drivers/STM32G4xx_HAL_Driver/Inc/stm32g4xx_hal.h"
ARM GAS  /var/folders/17/j_dgbcc52q10y0jc3c_zbwd80000gn/T//ccdhwDmV.s 			page 59

