ARM GAS  /var/folders/17/j_dgbcc52q10y0jc3c_zbwd80000gn/T//cc40SoIA.s 			page 1


   1              		.cpu cortex-m7
   2              		.eabi_attribute 27, 1
   3              		.eabi_attribute 28, 1
   4              		.eabi_attribute 20, 1
   5              		.eabi_attribute 21, 1
   6              		.eabi_attribute 23, 3
   7              		.eabi_attribute 24, 1
   8              		.eabi_attribute 25, 1
   9              		.eabi_attribute 26, 1
  10              		.eabi_attribute 30, 1
  11              		.eabi_attribute 34, 1
  12              		.eabi_attribute 18, 4
  13              		.file	"stm32g4xx_hal_pcd.c"
  14              		.text
  15              	.Ltext0:
  16              		.cfi_sections	.debug_frame
  17              		.section	.text.HAL_PCD_MspInit,"ax",%progbits
  18              		.align	1
  19              		.weak	HAL_PCD_MspInit
  20              		.syntax unified
  21              		.thumb
  22              		.thumb_func
  23              		.fpu fpv5-sp-d16
  25              	HAL_PCD_MspInit:
  26              	.LFB132:
  27              		.file 1 "Drivers/STM32G4xx_HAL_Driver/Src/stm32g4xx_hal_pcd.c"
   1:Drivers/STM32G4xx_HAL_Driver/Src/stm32g4xx_hal_pcd.c **** /**
   2:Drivers/STM32G4xx_HAL_Driver/Src/stm32g4xx_hal_pcd.c ****   ******************************************************************************
   3:Drivers/STM32G4xx_HAL_Driver/Src/stm32g4xx_hal_pcd.c ****   * @file    stm32g4xx_hal_pcd.c
   4:Drivers/STM32G4xx_HAL_Driver/Src/stm32g4xx_hal_pcd.c ****   * @author  MCD Application Team
   5:Drivers/STM32G4xx_HAL_Driver/Src/stm32g4xx_hal_pcd.c ****   * @brief   PCD HAL module driver.
   6:Drivers/STM32G4xx_HAL_Driver/Src/stm32g4xx_hal_pcd.c ****   *          This file provides firmware functions to manage the following
   7:Drivers/STM32G4xx_HAL_Driver/Src/stm32g4xx_hal_pcd.c ****   *          functionalities of the USB Peripheral Controller:
   8:Drivers/STM32G4xx_HAL_Driver/Src/stm32g4xx_hal_pcd.c ****   *           + Initialization and de-initialization functions
   9:Drivers/STM32G4xx_HAL_Driver/Src/stm32g4xx_hal_pcd.c ****   *           + IO operation functions
  10:Drivers/STM32G4xx_HAL_Driver/Src/stm32g4xx_hal_pcd.c ****   *           + Peripheral Control functions
  11:Drivers/STM32G4xx_HAL_Driver/Src/stm32g4xx_hal_pcd.c ****   *           + Peripheral State functions
  12:Drivers/STM32G4xx_HAL_Driver/Src/stm32g4xx_hal_pcd.c ****   *
  13:Drivers/STM32G4xx_HAL_Driver/Src/stm32g4xx_hal_pcd.c ****   @verbatim
  14:Drivers/STM32G4xx_HAL_Driver/Src/stm32g4xx_hal_pcd.c ****   ==============================================================================
  15:Drivers/STM32G4xx_HAL_Driver/Src/stm32g4xx_hal_pcd.c ****                     ##### How to use this driver #####
  16:Drivers/STM32G4xx_HAL_Driver/Src/stm32g4xx_hal_pcd.c ****   ==============================================================================
  17:Drivers/STM32G4xx_HAL_Driver/Src/stm32g4xx_hal_pcd.c ****     [..]
  18:Drivers/STM32G4xx_HAL_Driver/Src/stm32g4xx_hal_pcd.c ****       The PCD HAL driver can be used as follows:
  19:Drivers/STM32G4xx_HAL_Driver/Src/stm32g4xx_hal_pcd.c **** 
  20:Drivers/STM32G4xx_HAL_Driver/Src/stm32g4xx_hal_pcd.c ****      (#) Declare a PCD_HandleTypeDef handle structure, for example:
  21:Drivers/STM32G4xx_HAL_Driver/Src/stm32g4xx_hal_pcd.c ****          PCD_HandleTypeDef  hpcd;
  22:Drivers/STM32G4xx_HAL_Driver/Src/stm32g4xx_hal_pcd.c **** 
  23:Drivers/STM32G4xx_HAL_Driver/Src/stm32g4xx_hal_pcd.c ****      (#) Fill parameters of Init structure in HCD handle
  24:Drivers/STM32G4xx_HAL_Driver/Src/stm32g4xx_hal_pcd.c **** 
  25:Drivers/STM32G4xx_HAL_Driver/Src/stm32g4xx_hal_pcd.c ****      (#) Call HAL_PCD_Init() API to initialize the PCD peripheral (Core, Device core, ...)
  26:Drivers/STM32G4xx_HAL_Driver/Src/stm32g4xx_hal_pcd.c **** 
  27:Drivers/STM32G4xx_HAL_Driver/Src/stm32g4xx_hal_pcd.c ****      (#) Initialize the PCD low level resources through the HAL_PCD_MspInit() API:
  28:Drivers/STM32G4xx_HAL_Driver/Src/stm32g4xx_hal_pcd.c ****          (##) Enable the PCD/USB Low Level interface clock using
  29:Drivers/STM32G4xx_HAL_Driver/Src/stm32g4xx_hal_pcd.c ****               (+++) __HAL_RCC_USB_CLK_ENABLE(); For USB Device only FS peripheral
  30:Drivers/STM32G4xx_HAL_Driver/Src/stm32g4xx_hal_pcd.c **** 
  31:Drivers/STM32G4xx_HAL_Driver/Src/stm32g4xx_hal_pcd.c ****          (##) Initialize the related GPIO clocks
ARM GAS  /var/folders/17/j_dgbcc52q10y0jc3c_zbwd80000gn/T//cc40SoIA.s 			page 2


  32:Drivers/STM32G4xx_HAL_Driver/Src/stm32g4xx_hal_pcd.c ****          (##) Configure PCD pin-out
  33:Drivers/STM32G4xx_HAL_Driver/Src/stm32g4xx_hal_pcd.c ****          (##) Configure PCD NVIC interrupt
  34:Drivers/STM32G4xx_HAL_Driver/Src/stm32g4xx_hal_pcd.c **** 
  35:Drivers/STM32G4xx_HAL_Driver/Src/stm32g4xx_hal_pcd.c ****      (#)Associate the Upper USB device stack to the HAL PCD Driver:
  36:Drivers/STM32G4xx_HAL_Driver/Src/stm32g4xx_hal_pcd.c ****          (##) hpcd.pData = pdev;
  37:Drivers/STM32G4xx_HAL_Driver/Src/stm32g4xx_hal_pcd.c **** 
  38:Drivers/STM32G4xx_HAL_Driver/Src/stm32g4xx_hal_pcd.c ****      (#)Enable PCD transmission and reception:
  39:Drivers/STM32G4xx_HAL_Driver/Src/stm32g4xx_hal_pcd.c ****          (##) HAL_PCD_Start();
  40:Drivers/STM32G4xx_HAL_Driver/Src/stm32g4xx_hal_pcd.c **** 
  41:Drivers/STM32G4xx_HAL_Driver/Src/stm32g4xx_hal_pcd.c ****   @endverbatim
  42:Drivers/STM32G4xx_HAL_Driver/Src/stm32g4xx_hal_pcd.c ****   ******************************************************************************
  43:Drivers/STM32G4xx_HAL_Driver/Src/stm32g4xx_hal_pcd.c ****   * @attention
  44:Drivers/STM32G4xx_HAL_Driver/Src/stm32g4xx_hal_pcd.c ****   *
  45:Drivers/STM32G4xx_HAL_Driver/Src/stm32g4xx_hal_pcd.c ****   * <h2><center>&copy; Copyright (c) 2019 STMicroelectronics.
  46:Drivers/STM32G4xx_HAL_Driver/Src/stm32g4xx_hal_pcd.c ****   * All rights reserved.</center></h2>
  47:Drivers/STM32G4xx_HAL_Driver/Src/stm32g4xx_hal_pcd.c ****   *
  48:Drivers/STM32G4xx_HAL_Driver/Src/stm32g4xx_hal_pcd.c ****   * This software component is licensed by ST under BSD 3-Clause license,
  49:Drivers/STM32G4xx_HAL_Driver/Src/stm32g4xx_hal_pcd.c ****   * the "License"; You may not use this file except in compliance with the
  50:Drivers/STM32G4xx_HAL_Driver/Src/stm32g4xx_hal_pcd.c ****   * License. You may obtain a copy of the License at:
  51:Drivers/STM32G4xx_HAL_Driver/Src/stm32g4xx_hal_pcd.c ****   *                        opensource.org/licenses/BSD-3-Clause
  52:Drivers/STM32G4xx_HAL_Driver/Src/stm32g4xx_hal_pcd.c ****   *
  53:Drivers/STM32G4xx_HAL_Driver/Src/stm32g4xx_hal_pcd.c ****   ******************************************************************************
  54:Drivers/STM32G4xx_HAL_Driver/Src/stm32g4xx_hal_pcd.c ****   */
  55:Drivers/STM32G4xx_HAL_Driver/Src/stm32g4xx_hal_pcd.c **** 
  56:Drivers/STM32G4xx_HAL_Driver/Src/stm32g4xx_hal_pcd.c **** /* Includes ------------------------------------------------------------------*/
  57:Drivers/STM32G4xx_HAL_Driver/Src/stm32g4xx_hal_pcd.c **** #include "stm32g4xx_hal.h"
  58:Drivers/STM32G4xx_HAL_Driver/Src/stm32g4xx_hal_pcd.c **** 
  59:Drivers/STM32G4xx_HAL_Driver/Src/stm32g4xx_hal_pcd.c **** /** @addtogroup STM32G4xx_HAL_Driver
  60:Drivers/STM32G4xx_HAL_Driver/Src/stm32g4xx_hal_pcd.c ****   * @{
  61:Drivers/STM32G4xx_HAL_Driver/Src/stm32g4xx_hal_pcd.c ****   */
  62:Drivers/STM32G4xx_HAL_Driver/Src/stm32g4xx_hal_pcd.c **** 
  63:Drivers/STM32G4xx_HAL_Driver/Src/stm32g4xx_hal_pcd.c **** /** @defgroup PCD PCD
  64:Drivers/STM32G4xx_HAL_Driver/Src/stm32g4xx_hal_pcd.c ****   * @brief PCD HAL module driver
  65:Drivers/STM32G4xx_HAL_Driver/Src/stm32g4xx_hal_pcd.c ****   * @{
  66:Drivers/STM32G4xx_HAL_Driver/Src/stm32g4xx_hal_pcd.c ****   */
  67:Drivers/STM32G4xx_HAL_Driver/Src/stm32g4xx_hal_pcd.c **** 
  68:Drivers/STM32G4xx_HAL_Driver/Src/stm32g4xx_hal_pcd.c **** #ifdef HAL_PCD_MODULE_ENABLED
  69:Drivers/STM32G4xx_HAL_Driver/Src/stm32g4xx_hal_pcd.c **** 
  70:Drivers/STM32G4xx_HAL_Driver/Src/stm32g4xx_hal_pcd.c **** #if defined (USB)
  71:Drivers/STM32G4xx_HAL_Driver/Src/stm32g4xx_hal_pcd.c **** 
  72:Drivers/STM32G4xx_HAL_Driver/Src/stm32g4xx_hal_pcd.c **** /* Private types -------------------------------------------------------------*/
  73:Drivers/STM32G4xx_HAL_Driver/Src/stm32g4xx_hal_pcd.c **** /* Private variables ---------------------------------------------------------*/
  74:Drivers/STM32G4xx_HAL_Driver/Src/stm32g4xx_hal_pcd.c **** /* Private constants ---------------------------------------------------------*/
  75:Drivers/STM32G4xx_HAL_Driver/Src/stm32g4xx_hal_pcd.c **** /* Private macros ------------------------------------------------------------*/
  76:Drivers/STM32G4xx_HAL_Driver/Src/stm32g4xx_hal_pcd.c **** /** @defgroup PCD_Private_Macros PCD Private Macros
  77:Drivers/STM32G4xx_HAL_Driver/Src/stm32g4xx_hal_pcd.c ****   * @{
  78:Drivers/STM32G4xx_HAL_Driver/Src/stm32g4xx_hal_pcd.c ****   */
  79:Drivers/STM32G4xx_HAL_Driver/Src/stm32g4xx_hal_pcd.c **** #define PCD_MIN(a, b)  (((a) < (b)) ? (a) : (b))
  80:Drivers/STM32G4xx_HAL_Driver/Src/stm32g4xx_hal_pcd.c **** #define PCD_MAX(a, b)  (((a) > (b)) ? (a) : (b))
  81:Drivers/STM32G4xx_HAL_Driver/Src/stm32g4xx_hal_pcd.c **** /**
  82:Drivers/STM32G4xx_HAL_Driver/Src/stm32g4xx_hal_pcd.c ****   * @}
  83:Drivers/STM32G4xx_HAL_Driver/Src/stm32g4xx_hal_pcd.c ****   */
  84:Drivers/STM32G4xx_HAL_Driver/Src/stm32g4xx_hal_pcd.c **** 
  85:Drivers/STM32G4xx_HAL_Driver/Src/stm32g4xx_hal_pcd.c **** /* Private functions prototypes ----------------------------------------------*/
  86:Drivers/STM32G4xx_HAL_Driver/Src/stm32g4xx_hal_pcd.c **** /** @defgroup PCD_Private_Functions PCD Private Functions
  87:Drivers/STM32G4xx_HAL_Driver/Src/stm32g4xx_hal_pcd.c ****   * @{
  88:Drivers/STM32G4xx_HAL_Driver/Src/stm32g4xx_hal_pcd.c ****   */
ARM GAS  /var/folders/17/j_dgbcc52q10y0jc3c_zbwd80000gn/T//cc40SoIA.s 			page 3


  89:Drivers/STM32G4xx_HAL_Driver/Src/stm32g4xx_hal_pcd.c **** 
  90:Drivers/STM32G4xx_HAL_Driver/Src/stm32g4xx_hal_pcd.c **** static HAL_StatusTypeDef PCD_EP_ISR_Handler(PCD_HandleTypeDef *hpcd);
  91:Drivers/STM32G4xx_HAL_Driver/Src/stm32g4xx_hal_pcd.c **** 
  92:Drivers/STM32G4xx_HAL_Driver/Src/stm32g4xx_hal_pcd.c **** /**
  93:Drivers/STM32G4xx_HAL_Driver/Src/stm32g4xx_hal_pcd.c ****   * @}
  94:Drivers/STM32G4xx_HAL_Driver/Src/stm32g4xx_hal_pcd.c ****   */
  95:Drivers/STM32G4xx_HAL_Driver/Src/stm32g4xx_hal_pcd.c **** 
  96:Drivers/STM32G4xx_HAL_Driver/Src/stm32g4xx_hal_pcd.c **** /* Exported functions --------------------------------------------------------*/
  97:Drivers/STM32G4xx_HAL_Driver/Src/stm32g4xx_hal_pcd.c **** /** @defgroup PCD_Exported_Functions PCD Exported Functions
  98:Drivers/STM32G4xx_HAL_Driver/Src/stm32g4xx_hal_pcd.c ****   * @{
  99:Drivers/STM32G4xx_HAL_Driver/Src/stm32g4xx_hal_pcd.c ****   */
 100:Drivers/STM32G4xx_HAL_Driver/Src/stm32g4xx_hal_pcd.c **** 
 101:Drivers/STM32G4xx_HAL_Driver/Src/stm32g4xx_hal_pcd.c **** /** @defgroup PCD_Exported_Functions_Group1 Initialization and de-initialization functions
 102:Drivers/STM32G4xx_HAL_Driver/Src/stm32g4xx_hal_pcd.c ****  *  @brief    Initialization and Configuration functions
 103:Drivers/STM32G4xx_HAL_Driver/Src/stm32g4xx_hal_pcd.c ****  *
 104:Drivers/STM32G4xx_HAL_Driver/Src/stm32g4xx_hal_pcd.c **** @verbatim
 105:Drivers/STM32G4xx_HAL_Driver/Src/stm32g4xx_hal_pcd.c ****  ===============================================================================
 106:Drivers/STM32G4xx_HAL_Driver/Src/stm32g4xx_hal_pcd.c ****             ##### Initialization and de-initialization functions #####
 107:Drivers/STM32G4xx_HAL_Driver/Src/stm32g4xx_hal_pcd.c ****  ===============================================================================
 108:Drivers/STM32G4xx_HAL_Driver/Src/stm32g4xx_hal_pcd.c ****     [..]  This section provides functions allowing to:
 109:Drivers/STM32G4xx_HAL_Driver/Src/stm32g4xx_hal_pcd.c **** 
 110:Drivers/STM32G4xx_HAL_Driver/Src/stm32g4xx_hal_pcd.c **** @endverbatim
 111:Drivers/STM32G4xx_HAL_Driver/Src/stm32g4xx_hal_pcd.c ****   * @{
 112:Drivers/STM32G4xx_HAL_Driver/Src/stm32g4xx_hal_pcd.c ****   */
 113:Drivers/STM32G4xx_HAL_Driver/Src/stm32g4xx_hal_pcd.c **** 
 114:Drivers/STM32G4xx_HAL_Driver/Src/stm32g4xx_hal_pcd.c **** /**
 115:Drivers/STM32G4xx_HAL_Driver/Src/stm32g4xx_hal_pcd.c ****   * @brief  Initializes the PCD according to the specified
 116:Drivers/STM32G4xx_HAL_Driver/Src/stm32g4xx_hal_pcd.c ****   *         parameters in the PCD_InitTypeDef and initialize the associated handle.
 117:Drivers/STM32G4xx_HAL_Driver/Src/stm32g4xx_hal_pcd.c ****   * @param  hpcd PCD handle
 118:Drivers/STM32G4xx_HAL_Driver/Src/stm32g4xx_hal_pcd.c ****   * @retval HAL status
 119:Drivers/STM32G4xx_HAL_Driver/Src/stm32g4xx_hal_pcd.c ****   */
 120:Drivers/STM32G4xx_HAL_Driver/Src/stm32g4xx_hal_pcd.c **** HAL_StatusTypeDef HAL_PCD_Init(PCD_HandleTypeDef *hpcd)
 121:Drivers/STM32G4xx_HAL_Driver/Src/stm32g4xx_hal_pcd.c **** {
 122:Drivers/STM32G4xx_HAL_Driver/Src/stm32g4xx_hal_pcd.c ****   uint8_t i;
 123:Drivers/STM32G4xx_HAL_Driver/Src/stm32g4xx_hal_pcd.c **** 
 124:Drivers/STM32G4xx_HAL_Driver/Src/stm32g4xx_hal_pcd.c ****   /* Check the PCD handle allocation */
 125:Drivers/STM32G4xx_HAL_Driver/Src/stm32g4xx_hal_pcd.c ****   if (hpcd == NULL)
 126:Drivers/STM32G4xx_HAL_Driver/Src/stm32g4xx_hal_pcd.c ****   {
 127:Drivers/STM32G4xx_HAL_Driver/Src/stm32g4xx_hal_pcd.c ****     return HAL_ERROR;
 128:Drivers/STM32G4xx_HAL_Driver/Src/stm32g4xx_hal_pcd.c ****   }
 129:Drivers/STM32G4xx_HAL_Driver/Src/stm32g4xx_hal_pcd.c **** 
 130:Drivers/STM32G4xx_HAL_Driver/Src/stm32g4xx_hal_pcd.c ****   /* Check the parameters */
 131:Drivers/STM32G4xx_HAL_Driver/Src/stm32g4xx_hal_pcd.c ****   assert_param(IS_PCD_ALL_INSTANCE(hpcd->Instance));
 132:Drivers/STM32G4xx_HAL_Driver/Src/stm32g4xx_hal_pcd.c **** 
 133:Drivers/STM32G4xx_HAL_Driver/Src/stm32g4xx_hal_pcd.c ****   if (hpcd->State == HAL_PCD_STATE_RESET)
 134:Drivers/STM32G4xx_HAL_Driver/Src/stm32g4xx_hal_pcd.c ****   {
 135:Drivers/STM32G4xx_HAL_Driver/Src/stm32g4xx_hal_pcd.c ****     /* Allocate lock resource and initialize it */
 136:Drivers/STM32G4xx_HAL_Driver/Src/stm32g4xx_hal_pcd.c ****     hpcd->Lock = HAL_UNLOCKED;
 137:Drivers/STM32G4xx_HAL_Driver/Src/stm32g4xx_hal_pcd.c **** 
 138:Drivers/STM32G4xx_HAL_Driver/Src/stm32g4xx_hal_pcd.c **** #if (USE_HAL_PCD_REGISTER_CALLBACKS == 1U)
 139:Drivers/STM32G4xx_HAL_Driver/Src/stm32g4xx_hal_pcd.c ****     hpcd->SOFCallback = HAL_PCD_SOFCallback;
 140:Drivers/STM32G4xx_HAL_Driver/Src/stm32g4xx_hal_pcd.c ****     hpcd->SetupStageCallback = HAL_PCD_SetupStageCallback;
 141:Drivers/STM32G4xx_HAL_Driver/Src/stm32g4xx_hal_pcd.c ****     hpcd->ResetCallback = HAL_PCD_ResetCallback;
 142:Drivers/STM32G4xx_HAL_Driver/Src/stm32g4xx_hal_pcd.c ****     hpcd->SuspendCallback = HAL_PCD_SuspendCallback;
 143:Drivers/STM32G4xx_HAL_Driver/Src/stm32g4xx_hal_pcd.c ****     hpcd->ResumeCallback = HAL_PCD_ResumeCallback;
 144:Drivers/STM32G4xx_HAL_Driver/Src/stm32g4xx_hal_pcd.c ****     hpcd->ConnectCallback = HAL_PCD_ConnectCallback;
 145:Drivers/STM32G4xx_HAL_Driver/Src/stm32g4xx_hal_pcd.c ****     hpcd->DisconnectCallback = HAL_PCD_DisconnectCallback;
ARM GAS  /var/folders/17/j_dgbcc52q10y0jc3c_zbwd80000gn/T//cc40SoIA.s 			page 4


 146:Drivers/STM32G4xx_HAL_Driver/Src/stm32g4xx_hal_pcd.c ****     hpcd->DataOutStageCallback = HAL_PCD_DataOutStageCallback;
 147:Drivers/STM32G4xx_HAL_Driver/Src/stm32g4xx_hal_pcd.c ****     hpcd->DataInStageCallback = HAL_PCD_DataInStageCallback;
 148:Drivers/STM32G4xx_HAL_Driver/Src/stm32g4xx_hal_pcd.c ****     hpcd->ISOOUTIncompleteCallback = HAL_PCD_ISOOUTIncompleteCallback;
 149:Drivers/STM32G4xx_HAL_Driver/Src/stm32g4xx_hal_pcd.c ****     hpcd->ISOINIncompleteCallback = HAL_PCD_ISOINIncompleteCallback;
 150:Drivers/STM32G4xx_HAL_Driver/Src/stm32g4xx_hal_pcd.c ****     hpcd->LPMCallback = HAL_PCDEx_LPM_Callback;
 151:Drivers/STM32G4xx_HAL_Driver/Src/stm32g4xx_hal_pcd.c ****     hpcd->BCDCallback = HAL_PCDEx_BCD_Callback;
 152:Drivers/STM32G4xx_HAL_Driver/Src/stm32g4xx_hal_pcd.c **** 
 153:Drivers/STM32G4xx_HAL_Driver/Src/stm32g4xx_hal_pcd.c ****     if (hpcd->MspInitCallback == NULL)
 154:Drivers/STM32G4xx_HAL_Driver/Src/stm32g4xx_hal_pcd.c ****     {
 155:Drivers/STM32G4xx_HAL_Driver/Src/stm32g4xx_hal_pcd.c ****       hpcd->MspInitCallback = HAL_PCD_MspInit;
 156:Drivers/STM32G4xx_HAL_Driver/Src/stm32g4xx_hal_pcd.c ****     }
 157:Drivers/STM32G4xx_HAL_Driver/Src/stm32g4xx_hal_pcd.c **** 
 158:Drivers/STM32G4xx_HAL_Driver/Src/stm32g4xx_hal_pcd.c ****     /* Init the low level hardware */
 159:Drivers/STM32G4xx_HAL_Driver/Src/stm32g4xx_hal_pcd.c ****     hpcd->MspInitCallback(hpcd);
 160:Drivers/STM32G4xx_HAL_Driver/Src/stm32g4xx_hal_pcd.c **** #else
 161:Drivers/STM32G4xx_HAL_Driver/Src/stm32g4xx_hal_pcd.c ****     /* Init the low level hardware : GPIO, CLOCK, NVIC... */
 162:Drivers/STM32G4xx_HAL_Driver/Src/stm32g4xx_hal_pcd.c ****     HAL_PCD_MspInit(hpcd);
 163:Drivers/STM32G4xx_HAL_Driver/Src/stm32g4xx_hal_pcd.c **** #endif /* (USE_HAL_PCD_REGISTER_CALLBACKS) */
 164:Drivers/STM32G4xx_HAL_Driver/Src/stm32g4xx_hal_pcd.c ****   }
 165:Drivers/STM32G4xx_HAL_Driver/Src/stm32g4xx_hal_pcd.c **** 
 166:Drivers/STM32G4xx_HAL_Driver/Src/stm32g4xx_hal_pcd.c ****   hpcd->State = HAL_PCD_STATE_BUSY;
 167:Drivers/STM32G4xx_HAL_Driver/Src/stm32g4xx_hal_pcd.c **** 
 168:Drivers/STM32G4xx_HAL_Driver/Src/stm32g4xx_hal_pcd.c ****   /* Disable the Interrupts */
 169:Drivers/STM32G4xx_HAL_Driver/Src/stm32g4xx_hal_pcd.c ****   __HAL_PCD_DISABLE(hpcd);
 170:Drivers/STM32G4xx_HAL_Driver/Src/stm32g4xx_hal_pcd.c **** 
 171:Drivers/STM32G4xx_HAL_Driver/Src/stm32g4xx_hal_pcd.c ****   /* Init endpoints structures */
 172:Drivers/STM32G4xx_HAL_Driver/Src/stm32g4xx_hal_pcd.c ****   for (i = 0U; i < hpcd->Init.dev_endpoints; i++)
 173:Drivers/STM32G4xx_HAL_Driver/Src/stm32g4xx_hal_pcd.c ****   {
 174:Drivers/STM32G4xx_HAL_Driver/Src/stm32g4xx_hal_pcd.c ****     /* Init ep structure */
 175:Drivers/STM32G4xx_HAL_Driver/Src/stm32g4xx_hal_pcd.c ****     hpcd->IN_ep[i].is_in = 1U;
 176:Drivers/STM32G4xx_HAL_Driver/Src/stm32g4xx_hal_pcd.c ****     hpcd->IN_ep[i].num = i;
 177:Drivers/STM32G4xx_HAL_Driver/Src/stm32g4xx_hal_pcd.c ****     hpcd->IN_ep[i].tx_fifo_num = i;
 178:Drivers/STM32G4xx_HAL_Driver/Src/stm32g4xx_hal_pcd.c ****     /* Control until ep is activated */
 179:Drivers/STM32G4xx_HAL_Driver/Src/stm32g4xx_hal_pcd.c ****     hpcd->IN_ep[i].type = EP_TYPE_CTRL;
 180:Drivers/STM32G4xx_HAL_Driver/Src/stm32g4xx_hal_pcd.c ****     hpcd->IN_ep[i].maxpacket = 0U;
 181:Drivers/STM32G4xx_HAL_Driver/Src/stm32g4xx_hal_pcd.c ****     hpcd->IN_ep[i].xfer_buff = 0U;
 182:Drivers/STM32G4xx_HAL_Driver/Src/stm32g4xx_hal_pcd.c ****     hpcd->IN_ep[i].xfer_len = 0U;
 183:Drivers/STM32G4xx_HAL_Driver/Src/stm32g4xx_hal_pcd.c ****   }
 184:Drivers/STM32G4xx_HAL_Driver/Src/stm32g4xx_hal_pcd.c **** 
 185:Drivers/STM32G4xx_HAL_Driver/Src/stm32g4xx_hal_pcd.c ****   for (i = 0U; i < hpcd->Init.dev_endpoints; i++)
 186:Drivers/STM32G4xx_HAL_Driver/Src/stm32g4xx_hal_pcd.c ****   {
 187:Drivers/STM32G4xx_HAL_Driver/Src/stm32g4xx_hal_pcd.c ****     hpcd->OUT_ep[i].is_in = 0U;
 188:Drivers/STM32G4xx_HAL_Driver/Src/stm32g4xx_hal_pcd.c ****     hpcd->OUT_ep[i].num = i;
 189:Drivers/STM32G4xx_HAL_Driver/Src/stm32g4xx_hal_pcd.c ****     /* Control until ep is activated */
 190:Drivers/STM32G4xx_HAL_Driver/Src/stm32g4xx_hal_pcd.c ****     hpcd->OUT_ep[i].type = EP_TYPE_CTRL;
 191:Drivers/STM32G4xx_HAL_Driver/Src/stm32g4xx_hal_pcd.c ****     hpcd->OUT_ep[i].maxpacket = 0U;
 192:Drivers/STM32G4xx_HAL_Driver/Src/stm32g4xx_hal_pcd.c ****     hpcd->OUT_ep[i].xfer_buff = 0U;
 193:Drivers/STM32G4xx_HAL_Driver/Src/stm32g4xx_hal_pcd.c ****     hpcd->OUT_ep[i].xfer_len = 0U;
 194:Drivers/STM32G4xx_HAL_Driver/Src/stm32g4xx_hal_pcd.c ****   }
 195:Drivers/STM32G4xx_HAL_Driver/Src/stm32g4xx_hal_pcd.c **** 
 196:Drivers/STM32G4xx_HAL_Driver/Src/stm32g4xx_hal_pcd.c ****   /* Init Device */
 197:Drivers/STM32G4xx_HAL_Driver/Src/stm32g4xx_hal_pcd.c ****   (void)USB_DevInit(hpcd->Instance, hpcd->Init);
 198:Drivers/STM32G4xx_HAL_Driver/Src/stm32g4xx_hal_pcd.c **** 
 199:Drivers/STM32G4xx_HAL_Driver/Src/stm32g4xx_hal_pcd.c ****   hpcd->USB_Address = 0U;
 200:Drivers/STM32G4xx_HAL_Driver/Src/stm32g4xx_hal_pcd.c ****   hpcd->State = HAL_PCD_STATE_READY;
 201:Drivers/STM32G4xx_HAL_Driver/Src/stm32g4xx_hal_pcd.c ****   
 202:Drivers/STM32G4xx_HAL_Driver/Src/stm32g4xx_hal_pcd.c ****   /* Activate LPM */
ARM GAS  /var/folders/17/j_dgbcc52q10y0jc3c_zbwd80000gn/T//cc40SoIA.s 			page 5


 203:Drivers/STM32G4xx_HAL_Driver/Src/stm32g4xx_hal_pcd.c ****   if (hpcd->Init.lpm_enable == 1U)
 204:Drivers/STM32G4xx_HAL_Driver/Src/stm32g4xx_hal_pcd.c ****   {
 205:Drivers/STM32G4xx_HAL_Driver/Src/stm32g4xx_hal_pcd.c ****     (void)HAL_PCDEx_ActivateLPM(hpcd);
 206:Drivers/STM32G4xx_HAL_Driver/Src/stm32g4xx_hal_pcd.c ****   }
 207:Drivers/STM32G4xx_HAL_Driver/Src/stm32g4xx_hal_pcd.c ****   
 208:Drivers/STM32G4xx_HAL_Driver/Src/stm32g4xx_hal_pcd.c ****   return HAL_OK;
 209:Drivers/STM32G4xx_HAL_Driver/Src/stm32g4xx_hal_pcd.c **** }
 210:Drivers/STM32G4xx_HAL_Driver/Src/stm32g4xx_hal_pcd.c **** 
 211:Drivers/STM32G4xx_HAL_Driver/Src/stm32g4xx_hal_pcd.c **** /**
 212:Drivers/STM32G4xx_HAL_Driver/Src/stm32g4xx_hal_pcd.c ****   * @brief  DeInitializes the PCD peripheral.
 213:Drivers/STM32G4xx_HAL_Driver/Src/stm32g4xx_hal_pcd.c ****   * @param  hpcd PCD handle
 214:Drivers/STM32G4xx_HAL_Driver/Src/stm32g4xx_hal_pcd.c ****   * @retval HAL status
 215:Drivers/STM32G4xx_HAL_Driver/Src/stm32g4xx_hal_pcd.c ****   */
 216:Drivers/STM32G4xx_HAL_Driver/Src/stm32g4xx_hal_pcd.c **** HAL_StatusTypeDef HAL_PCD_DeInit(PCD_HandleTypeDef *hpcd)
 217:Drivers/STM32G4xx_HAL_Driver/Src/stm32g4xx_hal_pcd.c **** {
 218:Drivers/STM32G4xx_HAL_Driver/Src/stm32g4xx_hal_pcd.c ****   /* Check the PCD handle allocation */
 219:Drivers/STM32G4xx_HAL_Driver/Src/stm32g4xx_hal_pcd.c ****   if (hpcd == NULL)
 220:Drivers/STM32G4xx_HAL_Driver/Src/stm32g4xx_hal_pcd.c ****   {
 221:Drivers/STM32G4xx_HAL_Driver/Src/stm32g4xx_hal_pcd.c ****     return HAL_ERROR;
 222:Drivers/STM32G4xx_HAL_Driver/Src/stm32g4xx_hal_pcd.c ****   }
 223:Drivers/STM32G4xx_HAL_Driver/Src/stm32g4xx_hal_pcd.c **** 
 224:Drivers/STM32G4xx_HAL_Driver/Src/stm32g4xx_hal_pcd.c ****   hpcd->State = HAL_PCD_STATE_BUSY;
 225:Drivers/STM32G4xx_HAL_Driver/Src/stm32g4xx_hal_pcd.c **** 
 226:Drivers/STM32G4xx_HAL_Driver/Src/stm32g4xx_hal_pcd.c ****   /* Stop Device */
 227:Drivers/STM32G4xx_HAL_Driver/Src/stm32g4xx_hal_pcd.c ****   (void)HAL_PCD_Stop(hpcd);
 228:Drivers/STM32G4xx_HAL_Driver/Src/stm32g4xx_hal_pcd.c **** 
 229:Drivers/STM32G4xx_HAL_Driver/Src/stm32g4xx_hal_pcd.c **** #if (USE_HAL_PCD_REGISTER_CALLBACKS == 1U)
 230:Drivers/STM32G4xx_HAL_Driver/Src/stm32g4xx_hal_pcd.c ****   if (hpcd->MspDeInitCallback == NULL)
 231:Drivers/STM32G4xx_HAL_Driver/Src/stm32g4xx_hal_pcd.c ****   {
 232:Drivers/STM32G4xx_HAL_Driver/Src/stm32g4xx_hal_pcd.c ****     hpcd->MspDeInitCallback = HAL_PCD_MspDeInit; /* Legacy weak MspDeInit  */
 233:Drivers/STM32G4xx_HAL_Driver/Src/stm32g4xx_hal_pcd.c ****   }
 234:Drivers/STM32G4xx_HAL_Driver/Src/stm32g4xx_hal_pcd.c **** 
 235:Drivers/STM32G4xx_HAL_Driver/Src/stm32g4xx_hal_pcd.c ****   /* DeInit the low level hardware */
 236:Drivers/STM32G4xx_HAL_Driver/Src/stm32g4xx_hal_pcd.c ****   hpcd->MspDeInitCallback(hpcd);
 237:Drivers/STM32G4xx_HAL_Driver/Src/stm32g4xx_hal_pcd.c **** #else
 238:Drivers/STM32G4xx_HAL_Driver/Src/stm32g4xx_hal_pcd.c ****   /* DeInit the low level hardware: CLOCK, NVIC.*/
 239:Drivers/STM32G4xx_HAL_Driver/Src/stm32g4xx_hal_pcd.c ****   HAL_PCD_MspDeInit(hpcd);
 240:Drivers/STM32G4xx_HAL_Driver/Src/stm32g4xx_hal_pcd.c **** #endif /* USE_HAL_PCD_REGISTER_CALLBACKS */
 241:Drivers/STM32G4xx_HAL_Driver/Src/stm32g4xx_hal_pcd.c **** 
 242:Drivers/STM32G4xx_HAL_Driver/Src/stm32g4xx_hal_pcd.c ****   hpcd->State = HAL_PCD_STATE_RESET;
 243:Drivers/STM32G4xx_HAL_Driver/Src/stm32g4xx_hal_pcd.c **** 
 244:Drivers/STM32G4xx_HAL_Driver/Src/stm32g4xx_hal_pcd.c ****   return HAL_OK;
 245:Drivers/STM32G4xx_HAL_Driver/Src/stm32g4xx_hal_pcd.c **** }
 246:Drivers/STM32G4xx_HAL_Driver/Src/stm32g4xx_hal_pcd.c **** 
 247:Drivers/STM32G4xx_HAL_Driver/Src/stm32g4xx_hal_pcd.c **** /**
 248:Drivers/STM32G4xx_HAL_Driver/Src/stm32g4xx_hal_pcd.c ****   * @brief  Initializes the PCD MSP.
 249:Drivers/STM32G4xx_HAL_Driver/Src/stm32g4xx_hal_pcd.c ****   * @param  hpcd PCD handle
 250:Drivers/STM32G4xx_HAL_Driver/Src/stm32g4xx_hal_pcd.c ****   * @retval None
 251:Drivers/STM32G4xx_HAL_Driver/Src/stm32g4xx_hal_pcd.c ****   */
 252:Drivers/STM32G4xx_HAL_Driver/Src/stm32g4xx_hal_pcd.c **** __weak void HAL_PCD_MspInit(PCD_HandleTypeDef *hpcd)
 253:Drivers/STM32G4xx_HAL_Driver/Src/stm32g4xx_hal_pcd.c **** {
  28              		.loc 1 253 0
  29              		.cfi_startproc
  30              		@ args = 0, pretend = 0, frame = 0
  31              		@ frame_needed = 0, uses_anonymous_args = 0
  32              		@ link register save eliminated.
  33              	.LVL0:
ARM GAS  /var/folders/17/j_dgbcc52q10y0jc3c_zbwd80000gn/T//cc40SoIA.s 			page 6


 254:Drivers/STM32G4xx_HAL_Driver/Src/stm32g4xx_hal_pcd.c ****   /* Prevent unused argument(s) compilation warning */
 255:Drivers/STM32G4xx_HAL_Driver/Src/stm32g4xx_hal_pcd.c ****   UNUSED(hpcd);
 256:Drivers/STM32G4xx_HAL_Driver/Src/stm32g4xx_hal_pcd.c **** 
 257:Drivers/STM32G4xx_HAL_Driver/Src/stm32g4xx_hal_pcd.c ****   /* NOTE : This function should not be modified, when the callback is needed,
 258:Drivers/STM32G4xx_HAL_Driver/Src/stm32g4xx_hal_pcd.c ****             the HAL_PCD_MspInit could be implemented in the user file
 259:Drivers/STM32G4xx_HAL_Driver/Src/stm32g4xx_hal_pcd.c ****    */
 260:Drivers/STM32G4xx_HAL_Driver/Src/stm32g4xx_hal_pcd.c **** }
  34              		.loc 1 260 0
  35 0000 7047     		bx	lr
  36              		.cfi_endproc
  37              	.LFE132:
  39              		.section	.text.HAL_PCD_Init,"ax",%progbits
  40              		.align	1
  41              		.global	HAL_PCD_Init
  42              		.syntax unified
  43              		.thumb
  44              		.thumb_func
  45              		.fpu fpv5-sp-d16
  47              	HAL_PCD_Init:
  48              	.LFB130:
 121:Drivers/STM32G4xx_HAL_Driver/Src/stm32g4xx_hal_pcd.c ****   uint8_t i;
  49              		.loc 1 121 0
  50              		.cfi_startproc
  51              		@ args = 0, pretend = 0, frame = 0
  52              		@ frame_needed = 0, uses_anonymous_args = 0
  53              	.LVL1:
 125:Drivers/STM32G4xx_HAL_Driver/Src/stm32g4xx_hal_pcd.c ****   {
  54              		.loc 1 125 0
  55 0000 0028     		cmp	r0, #0
  56 0002 5CD0     		beq	.L9
 121:Drivers/STM32G4xx_HAL_Driver/Src/stm32g4xx_hal_pcd.c ****   uint8_t i;
  57              		.loc 1 121 0
  58 0004 F0B5     		push	{r4, r5, r6, r7, lr}
  59              		.cfi_def_cfa_offset 20
  60              		.cfi_offset 4, -20
  61              		.cfi_offset 5, -16
  62              		.cfi_offset 6, -12
  63              		.cfi_offset 7, -8
  64              		.cfi_offset 14, -4
  65 0006 87B0     		sub	sp, sp, #28
  66              		.cfi_def_cfa_offset 48
  67 0008 0446     		mov	r4, r0
 133:Drivers/STM32G4xx_HAL_Driver/Src/stm32g4xx_hal_pcd.c ****   {
  68              		.loc 1 133 0
  69 000a 90F82932 		ldrb	r3, [r0, #553]	@ zero_extendqisi2
  70 000e 3BB1     		cbz	r3, .L15
  71              	.LVL2:
  72              	.L4:
 166:Drivers/STM32G4xx_HAL_Driver/Src/stm32g4xx_hal_pcd.c **** 
  73              		.loc 1 166 0
  74 0010 0323     		movs	r3, #3
  75 0012 84F82932 		strb	r3, [r4, #553]
 169:Drivers/STM32G4xx_HAL_Driver/Src/stm32g4xx_hal_pcd.c **** 
  76              		.loc 1 169 0
  77 0016 2068     		ldr	r0, [r4]
  78 0018 FFF7FEFF 		bl	USB_DisableGlobalInt
  79              	.LVL3:
ARM GAS  /var/folders/17/j_dgbcc52q10y0jc3c_zbwd80000gn/T//cc40SoIA.s 			page 7


 172:Drivers/STM32G4xx_HAL_Driver/Src/stm32g4xx_hal_pcd.c ****   {
  80              		.loc 1 172 0
  81 001c 0023     		movs	r3, #0
  82 001e 16E0     		b	.L5
  83              	.LVL4:
  84              	.L15:
 136:Drivers/STM32G4xx_HAL_Driver/Src/stm32g4xx_hal_pcd.c **** 
  85              		.loc 1 136 0
  86 0020 80F82832 		strb	r3, [r0, #552]
 162:Drivers/STM32G4xx_HAL_Driver/Src/stm32g4xx_hal_pcd.c **** #endif /* (USE_HAL_PCD_REGISTER_CALLBACKS) */
  87              		.loc 1 162 0
  88 0024 FFF7FEFF 		bl	HAL_PCD_MspInit
  89              	.LVL5:
  90 0028 F2E7     		b	.L4
  91              	.LVL6:
  92              	.L6:
 175:Drivers/STM32G4xx_HAL_Driver/Src/stm32g4xx_hal_pcd.c ****     hpcd->IN_ep[i].num = i;
  93              		.loc 1 175 0 discriminator 3
  94 002a 04EB4312 		add	r2, r4, r3, lsl #5
  95 002e 0121     		movs	r1, #1
  96 0030 82F82910 		strb	r1, [r2, #41]
 176:Drivers/STM32G4xx_HAL_Driver/Src/stm32g4xx_hal_pcd.c ****     hpcd->IN_ep[i].tx_fifo_num = i;
  97              		.loc 1 176 0 discriminator 3
  98 0034 82F82830 		strb	r3, [r2, #40]
 177:Drivers/STM32G4xx_HAL_Driver/Src/stm32g4xx_hal_pcd.c ****     /* Control until ep is activated */
  99              		.loc 1 177 0 discriminator 3
 100 0038 D386     		strh	r3, [r2, #54]	@ movhi
 179:Drivers/STM32G4xx_HAL_Driver/Src/stm32g4xx_hal_pcd.c ****     hpcd->IN_ep[i].maxpacket = 0U;
 101              		.loc 1 179 0 discriminator 3
 102 003a 0021     		movs	r1, #0
 103 003c 82F82B10 		strb	r1, [r2, #43]
 180:Drivers/STM32G4xx_HAL_Driver/Src/stm32g4xx_hal_pcd.c ****     hpcd->IN_ep[i].xfer_buff = 0U;
 104              		.loc 1 180 0 discriminator 3
 105 0040 9163     		str	r1, [r2, #56]
 181:Drivers/STM32G4xx_HAL_Driver/Src/stm32g4xx_hal_pcd.c ****     hpcd->IN_ep[i].xfer_len = 0U;
 106              		.loc 1 181 0 discriminator 3
 107 0042 D163     		str	r1, [r2, #60]
 182:Drivers/STM32G4xx_HAL_Driver/Src/stm32g4xx_hal_pcd.c ****   }
 108              		.loc 1 182 0 discriminator 3
 109 0044 9A1C     		adds	r2, r3, #2
 110 0046 5201     		lsls	r2, r2, #5
 111 0048 A150     		str	r1, [r4, r2]
 172:Drivers/STM32G4xx_HAL_Driver/Src/stm32g4xx_hal_pcd.c ****   {
 112              		.loc 1 172 0 discriminator 3
 113 004a 0133     		adds	r3, r3, #1
 114              	.LVL7:
 115 004c DBB2     		uxtb	r3, r3
 116              	.LVL8:
 117              	.L5:
 172:Drivers/STM32G4xx_HAL_Driver/Src/stm32g4xx_hal_pcd.c ****   {
 118              		.loc 1 172 0 is_stmt 0 discriminator 1
 119 004e 6068     		ldr	r0, [r4, #4]
 120 0050 8342     		cmp	r3, r0
 121 0052 EAD3     		bcc	.L6
 185:Drivers/STM32G4xx_HAL_Driver/Src/stm32g4xx_hal_pcd.c ****   {
 122              		.loc 1 185 0 is_stmt 1
 123 0054 0023     		movs	r3, #0
ARM GAS  /var/folders/17/j_dgbcc52q10y0jc3c_zbwd80000gn/T//cc40SoIA.s 			page 8


 124              	.LVL9:
 125 0056 12E0     		b	.L7
 126              	.LVL10:
 127              	.L8:
 187:Drivers/STM32G4xx_HAL_Driver/Src/stm32g4xx_hal_pcd.c ****     hpcd->OUT_ep[i].num = i;
 128              		.loc 1 187 0 discriminator 3
 129 0058 04EB4311 		add	r1, r4, r3, lsl #5
 130 005c 0022     		movs	r2, #0
 131 005e 81F82921 		strb	r2, [r1, #297]
 188:Drivers/STM32G4xx_HAL_Driver/Src/stm32g4xx_hal_pcd.c ****     /* Control until ep is activated */
 132              		.loc 1 188 0 discriminator 3
 133 0062 81F82831 		strb	r3, [r1, #296]
 190:Drivers/STM32G4xx_HAL_Driver/Src/stm32g4xx_hal_pcd.c ****     hpcd->OUT_ep[i].maxpacket = 0U;
 134              		.loc 1 190 0 discriminator 3
 135 0066 81F82B21 		strb	r2, [r1, #299]
 191:Drivers/STM32G4xx_HAL_Driver/Src/stm32g4xx_hal_pcd.c ****     hpcd->OUT_ep[i].xfer_buff = 0U;
 136              		.loc 1 191 0 discriminator 3
 137 006a C1F83821 		str	r2, [r1, #312]
 192:Drivers/STM32G4xx_HAL_Driver/Src/stm32g4xx_hal_pcd.c ****     hpcd->OUT_ep[i].xfer_len = 0U;
 138              		.loc 1 192 0 discriminator 3
 139 006e C1F83C21 		str	r2, [r1, #316]
 193:Drivers/STM32G4xx_HAL_Driver/Src/stm32g4xx_hal_pcd.c ****   }
 140              		.loc 1 193 0 discriminator 3
 141 0072 03F10A01 		add	r1, r3, #10
 142 0076 4901     		lsls	r1, r1, #5
 143 0078 6250     		str	r2, [r4, r1]
 185:Drivers/STM32G4xx_HAL_Driver/Src/stm32g4xx_hal_pcd.c ****   {
 144              		.loc 1 185 0 discriminator 3
 145 007a 0133     		adds	r3, r3, #1
 146              	.LVL11:
 147 007c DBB2     		uxtb	r3, r3
 148              	.LVL12:
 149              	.L7:
 185:Drivers/STM32G4xx_HAL_Driver/Src/stm32g4xx_hal_pcd.c ****   {
 150              		.loc 1 185 0 is_stmt 0 discriminator 1
 151 007e 9842     		cmp	r0, r3
 152 0080 EAD8     		bhi	.L8
 197:Drivers/STM32G4xx_HAL_Driver/Src/stm32g4xx_hal_pcd.c **** 
 153              		.loc 1 197 0 is_stmt 1
 154 0082 2546     		mov	r5, r4
 155 0084 55F8107B 		ldr	r7, [r5], #16
 156 0088 6E46     		mov	r6, sp
 157 008a 0FCD     		ldmia	r5!, {r0, r1, r2, r3}
 158              	.LVL13:
 159 008c 0FC6     		stmia	r6!, {r0, r1, r2, r3}
 160 008e 2B68     		ldr	r3, [r5]
 161 0090 3360     		str	r3, [r6]
 162 0092 231D     		adds	r3, r4, #4
 163 0094 0ECB     		ldm	r3, {r1, r2, r3}
 164 0096 3846     		mov	r0, r7
 165 0098 FFF7FEFF 		bl	USB_DevInit
 166              	.LVL14:
 199:Drivers/STM32G4xx_HAL_Driver/Src/stm32g4xx_hal_pcd.c ****   hpcd->State = HAL_PCD_STATE_READY;
 167              		.loc 1 199 0
 168 009c 0023     		movs	r3, #0
 169 009e 84F82430 		strb	r3, [r4, #36]
 200:Drivers/STM32G4xx_HAL_Driver/Src/stm32g4xx_hal_pcd.c ****   
ARM GAS  /var/folders/17/j_dgbcc52q10y0jc3c_zbwd80000gn/T//cc40SoIA.s 			page 9


 170              		.loc 1 200 0
 171 00a2 0123     		movs	r3, #1
 172 00a4 84F82932 		strb	r3, [r4, #553]
 203:Drivers/STM32G4xx_HAL_Driver/Src/stm32g4xx_hal_pcd.c ****   {
 173              		.loc 1 203 0
 174 00a8 E369     		ldr	r3, [r4, #28]
 175 00aa 012B     		cmp	r3, #1
 176 00ac 02D0     		beq	.L16
 208:Drivers/STM32G4xx_HAL_Driver/Src/stm32g4xx_hal_pcd.c **** }
 177              		.loc 1 208 0
 178 00ae 0020     		movs	r0, #0
 179              	.L3:
 209:Drivers/STM32G4xx_HAL_Driver/Src/stm32g4xx_hal_pcd.c **** 
 180              		.loc 1 209 0
 181 00b0 07B0     		add	sp, sp, #28
 182              		.cfi_remember_state
 183              		.cfi_def_cfa_offset 20
 184              		@ sp needed
 185 00b2 F0BD     		pop	{r4, r5, r6, r7, pc}
 186              	.LVL15:
 187              	.L16:
 188              		.cfi_restore_state
 205:Drivers/STM32G4xx_HAL_Driver/Src/stm32g4xx_hal_pcd.c ****   }
 189              		.loc 1 205 0
 190 00b4 2046     		mov	r0, r4
 191 00b6 FFF7FEFF 		bl	HAL_PCDEx_ActivateLPM
 192              	.LVL16:
 208:Drivers/STM32G4xx_HAL_Driver/Src/stm32g4xx_hal_pcd.c **** }
 193              		.loc 1 208 0
 194 00ba 0020     		movs	r0, #0
 195 00bc F8E7     		b	.L3
 196              	.LVL17:
 197              	.L9:
 198              		.cfi_def_cfa_offset 0
 199              		.cfi_restore 4
 200              		.cfi_restore 5
 201              		.cfi_restore 6
 202              		.cfi_restore 7
 203              		.cfi_restore 14
 127:Drivers/STM32G4xx_HAL_Driver/Src/stm32g4xx_hal_pcd.c ****   }
 204              		.loc 1 127 0
 205 00be 0120     		movs	r0, #1
 206              	.LVL18:
 209:Drivers/STM32G4xx_HAL_Driver/Src/stm32g4xx_hal_pcd.c **** 
 207              		.loc 1 209 0
 208 00c0 7047     		bx	lr
 209              		.cfi_endproc
 210              	.LFE130:
 212              		.section	.text.HAL_PCD_MspDeInit,"ax",%progbits
 213              		.align	1
 214              		.weak	HAL_PCD_MspDeInit
 215              		.syntax unified
 216              		.thumb
 217              		.thumb_func
 218              		.fpu fpv5-sp-d16
 220              	HAL_PCD_MspDeInit:
 221              	.LFB133:
ARM GAS  /var/folders/17/j_dgbcc52q10y0jc3c_zbwd80000gn/T//cc40SoIA.s 			page 10


 261:Drivers/STM32G4xx_HAL_Driver/Src/stm32g4xx_hal_pcd.c **** 
 262:Drivers/STM32G4xx_HAL_Driver/Src/stm32g4xx_hal_pcd.c **** /**
 263:Drivers/STM32G4xx_HAL_Driver/Src/stm32g4xx_hal_pcd.c ****   * @brief  DeInitializes PCD MSP.
 264:Drivers/STM32G4xx_HAL_Driver/Src/stm32g4xx_hal_pcd.c ****   * @param  hpcd PCD handle
 265:Drivers/STM32G4xx_HAL_Driver/Src/stm32g4xx_hal_pcd.c ****   * @retval None
 266:Drivers/STM32G4xx_HAL_Driver/Src/stm32g4xx_hal_pcd.c ****   */
 267:Drivers/STM32G4xx_HAL_Driver/Src/stm32g4xx_hal_pcd.c **** __weak void HAL_PCD_MspDeInit(PCD_HandleTypeDef *hpcd)
 268:Drivers/STM32G4xx_HAL_Driver/Src/stm32g4xx_hal_pcd.c **** {
 222              		.loc 1 268 0
 223              		.cfi_startproc
 224              		@ args = 0, pretend = 0, frame = 0
 225              		@ frame_needed = 0, uses_anonymous_args = 0
 226              		@ link register save eliminated.
 227              	.LVL19:
 269:Drivers/STM32G4xx_HAL_Driver/Src/stm32g4xx_hal_pcd.c ****   /* Prevent unused argument(s) compilation warning */
 270:Drivers/STM32G4xx_HAL_Driver/Src/stm32g4xx_hal_pcd.c ****   UNUSED(hpcd);
 271:Drivers/STM32G4xx_HAL_Driver/Src/stm32g4xx_hal_pcd.c **** 
 272:Drivers/STM32G4xx_HAL_Driver/Src/stm32g4xx_hal_pcd.c ****   /* NOTE : This function should not be modified, when the callback is needed,
 273:Drivers/STM32G4xx_HAL_Driver/Src/stm32g4xx_hal_pcd.c ****             the HAL_PCD_MspDeInit could be implemented in the user file
 274:Drivers/STM32G4xx_HAL_Driver/Src/stm32g4xx_hal_pcd.c ****    */
 275:Drivers/STM32G4xx_HAL_Driver/Src/stm32g4xx_hal_pcd.c **** }
 228              		.loc 1 275 0
 229 0000 7047     		bx	lr
 230              		.cfi_endproc
 231              	.LFE133:
 233              		.section	.text.HAL_PCD_Start,"ax",%progbits
 234              		.align	1
 235              		.global	HAL_PCD_Start
 236              		.syntax unified
 237              		.thumb
 238              		.thumb_func
 239              		.fpu fpv5-sp-d16
 241              	HAL_PCD_Start:
 242              	.LFB134:
 276:Drivers/STM32G4xx_HAL_Driver/Src/stm32g4xx_hal_pcd.c **** 
 277:Drivers/STM32G4xx_HAL_Driver/Src/stm32g4xx_hal_pcd.c **** #if (USE_HAL_PCD_REGISTER_CALLBACKS == 1U)
 278:Drivers/STM32G4xx_HAL_Driver/Src/stm32g4xx_hal_pcd.c **** /**
 279:Drivers/STM32G4xx_HAL_Driver/Src/stm32g4xx_hal_pcd.c ****   * @brief  Register a User USB PCD Callback
 280:Drivers/STM32G4xx_HAL_Driver/Src/stm32g4xx_hal_pcd.c ****   *         To be used instead of the weak predefined callback
 281:Drivers/STM32G4xx_HAL_Driver/Src/stm32g4xx_hal_pcd.c ****   * @param  hpcd USB PCD handle
 282:Drivers/STM32G4xx_HAL_Driver/Src/stm32g4xx_hal_pcd.c ****   * @param  CallbackID ID of the callback to be registered
 283:Drivers/STM32G4xx_HAL_Driver/Src/stm32g4xx_hal_pcd.c ****   *         This parameter can be one of the following values:
 284:Drivers/STM32G4xx_HAL_Driver/Src/stm32g4xx_hal_pcd.c ****   *          @arg @ref HAL_PCD_SOF_CB_ID USB PCD SOF callback ID
 285:Drivers/STM32G4xx_HAL_Driver/Src/stm32g4xx_hal_pcd.c ****   *          @arg @ref HAL_PCD_SETUPSTAGE_CB_ID USB PCD Setup callback ID
 286:Drivers/STM32G4xx_HAL_Driver/Src/stm32g4xx_hal_pcd.c ****   *          @arg @ref HAL_PCD_RESET_CB_ID USB PCD Reset callback ID
 287:Drivers/STM32G4xx_HAL_Driver/Src/stm32g4xx_hal_pcd.c ****   *          @arg @ref HAL_PCD_SUSPEND_CB_ID USB PCD Suspend callback ID
 288:Drivers/STM32G4xx_HAL_Driver/Src/stm32g4xx_hal_pcd.c ****   *          @arg @ref HAL_PCD_RESUME_CB_ID USB PCD Resume callback ID
 289:Drivers/STM32G4xx_HAL_Driver/Src/stm32g4xx_hal_pcd.c ****   *          @arg @ref HAL_PCD_CONNECT_CB_ID USB PCD Connect callback ID
 290:Drivers/STM32G4xx_HAL_Driver/Src/stm32g4xx_hal_pcd.c ****   *          @arg @ref HAL_PCD_DISCONNECT_CB_ID OTG PCD Disconnect callback ID
 291:Drivers/STM32G4xx_HAL_Driver/Src/stm32g4xx_hal_pcd.c ****   *          @arg @ref HAL_PCD_MSPINIT_CB_ID MspDeInit callback ID
 292:Drivers/STM32G4xx_HAL_Driver/Src/stm32g4xx_hal_pcd.c ****   *          @arg @ref HAL_PCD_MSPDEINIT_CB_ID MspDeInit callback ID
 293:Drivers/STM32G4xx_HAL_Driver/Src/stm32g4xx_hal_pcd.c ****   * @param  pCallback pointer to the Callback function
 294:Drivers/STM32G4xx_HAL_Driver/Src/stm32g4xx_hal_pcd.c ****   * @retval HAL status
 295:Drivers/STM32G4xx_HAL_Driver/Src/stm32g4xx_hal_pcd.c ****   */
 296:Drivers/STM32G4xx_HAL_Driver/Src/stm32g4xx_hal_pcd.c **** HAL_StatusTypeDef HAL_PCD_RegisterCallback(PCD_HandleTypeDef *hpcd, HAL_PCD_CallbackIDTypeDef Callb
 297:Drivers/STM32G4xx_HAL_Driver/Src/stm32g4xx_hal_pcd.c **** {
 298:Drivers/STM32G4xx_HAL_Driver/Src/stm32g4xx_hal_pcd.c ****   HAL_StatusTypeDef status = HAL_OK;
ARM GAS  /var/folders/17/j_dgbcc52q10y0jc3c_zbwd80000gn/T//cc40SoIA.s 			page 11


 299:Drivers/STM32G4xx_HAL_Driver/Src/stm32g4xx_hal_pcd.c **** 
 300:Drivers/STM32G4xx_HAL_Driver/Src/stm32g4xx_hal_pcd.c ****   if (pCallback == NULL)
 301:Drivers/STM32G4xx_HAL_Driver/Src/stm32g4xx_hal_pcd.c ****   {
 302:Drivers/STM32G4xx_HAL_Driver/Src/stm32g4xx_hal_pcd.c ****     /* Update the error code */
 303:Drivers/STM32G4xx_HAL_Driver/Src/stm32g4xx_hal_pcd.c ****     hpcd->ErrorCode |= HAL_PCD_ERROR_INVALID_CALLBACK;
 304:Drivers/STM32G4xx_HAL_Driver/Src/stm32g4xx_hal_pcd.c ****     return HAL_ERROR;
 305:Drivers/STM32G4xx_HAL_Driver/Src/stm32g4xx_hal_pcd.c ****   }
 306:Drivers/STM32G4xx_HAL_Driver/Src/stm32g4xx_hal_pcd.c ****   /* Process locked */
 307:Drivers/STM32G4xx_HAL_Driver/Src/stm32g4xx_hal_pcd.c ****   __HAL_LOCK(hpcd);
 308:Drivers/STM32G4xx_HAL_Driver/Src/stm32g4xx_hal_pcd.c **** 
 309:Drivers/STM32G4xx_HAL_Driver/Src/stm32g4xx_hal_pcd.c ****   if (hpcd->State == HAL_PCD_STATE_READY)
 310:Drivers/STM32G4xx_HAL_Driver/Src/stm32g4xx_hal_pcd.c ****   {
 311:Drivers/STM32G4xx_HAL_Driver/Src/stm32g4xx_hal_pcd.c ****     switch (CallbackID)
 312:Drivers/STM32G4xx_HAL_Driver/Src/stm32g4xx_hal_pcd.c ****     {
 313:Drivers/STM32G4xx_HAL_Driver/Src/stm32g4xx_hal_pcd.c ****       case HAL_PCD_SOF_CB_ID :
 314:Drivers/STM32G4xx_HAL_Driver/Src/stm32g4xx_hal_pcd.c ****         hpcd->SOFCallback = pCallback;
 315:Drivers/STM32G4xx_HAL_Driver/Src/stm32g4xx_hal_pcd.c ****         break;
 316:Drivers/STM32G4xx_HAL_Driver/Src/stm32g4xx_hal_pcd.c **** 
 317:Drivers/STM32G4xx_HAL_Driver/Src/stm32g4xx_hal_pcd.c ****       case HAL_PCD_SETUPSTAGE_CB_ID :
 318:Drivers/STM32G4xx_HAL_Driver/Src/stm32g4xx_hal_pcd.c ****         hpcd->SetupStageCallback = pCallback;
 319:Drivers/STM32G4xx_HAL_Driver/Src/stm32g4xx_hal_pcd.c ****         break;
 320:Drivers/STM32G4xx_HAL_Driver/Src/stm32g4xx_hal_pcd.c **** 
 321:Drivers/STM32G4xx_HAL_Driver/Src/stm32g4xx_hal_pcd.c ****       case HAL_PCD_RESET_CB_ID :
 322:Drivers/STM32G4xx_HAL_Driver/Src/stm32g4xx_hal_pcd.c ****         hpcd->ResetCallback = pCallback;
 323:Drivers/STM32G4xx_HAL_Driver/Src/stm32g4xx_hal_pcd.c ****         break;
 324:Drivers/STM32G4xx_HAL_Driver/Src/stm32g4xx_hal_pcd.c **** 
 325:Drivers/STM32G4xx_HAL_Driver/Src/stm32g4xx_hal_pcd.c ****       case HAL_PCD_SUSPEND_CB_ID :
 326:Drivers/STM32G4xx_HAL_Driver/Src/stm32g4xx_hal_pcd.c ****         hpcd->SuspendCallback = pCallback;
 327:Drivers/STM32G4xx_HAL_Driver/Src/stm32g4xx_hal_pcd.c ****         break;
 328:Drivers/STM32G4xx_HAL_Driver/Src/stm32g4xx_hal_pcd.c **** 
 329:Drivers/STM32G4xx_HAL_Driver/Src/stm32g4xx_hal_pcd.c ****       case HAL_PCD_RESUME_CB_ID :
 330:Drivers/STM32G4xx_HAL_Driver/Src/stm32g4xx_hal_pcd.c ****         hpcd->ResumeCallback = pCallback;
 331:Drivers/STM32G4xx_HAL_Driver/Src/stm32g4xx_hal_pcd.c ****         break;
 332:Drivers/STM32G4xx_HAL_Driver/Src/stm32g4xx_hal_pcd.c **** 
 333:Drivers/STM32G4xx_HAL_Driver/Src/stm32g4xx_hal_pcd.c ****       case HAL_PCD_CONNECT_CB_ID :
 334:Drivers/STM32G4xx_HAL_Driver/Src/stm32g4xx_hal_pcd.c ****         hpcd->ConnectCallback = pCallback;
 335:Drivers/STM32G4xx_HAL_Driver/Src/stm32g4xx_hal_pcd.c ****         break;
 336:Drivers/STM32G4xx_HAL_Driver/Src/stm32g4xx_hal_pcd.c **** 
 337:Drivers/STM32G4xx_HAL_Driver/Src/stm32g4xx_hal_pcd.c ****       case HAL_PCD_DISCONNECT_CB_ID :
 338:Drivers/STM32G4xx_HAL_Driver/Src/stm32g4xx_hal_pcd.c ****         hpcd->DisconnectCallback = pCallback;
 339:Drivers/STM32G4xx_HAL_Driver/Src/stm32g4xx_hal_pcd.c ****         break;
 340:Drivers/STM32G4xx_HAL_Driver/Src/stm32g4xx_hal_pcd.c **** 
 341:Drivers/STM32G4xx_HAL_Driver/Src/stm32g4xx_hal_pcd.c ****       case HAL_PCD_MSPINIT_CB_ID :
 342:Drivers/STM32G4xx_HAL_Driver/Src/stm32g4xx_hal_pcd.c ****         hpcd->MspInitCallback = pCallback;
 343:Drivers/STM32G4xx_HAL_Driver/Src/stm32g4xx_hal_pcd.c ****         break;
 344:Drivers/STM32G4xx_HAL_Driver/Src/stm32g4xx_hal_pcd.c **** 
 345:Drivers/STM32G4xx_HAL_Driver/Src/stm32g4xx_hal_pcd.c ****       case HAL_PCD_MSPDEINIT_CB_ID :
 346:Drivers/STM32G4xx_HAL_Driver/Src/stm32g4xx_hal_pcd.c ****         hpcd->MspDeInitCallback = pCallback;
 347:Drivers/STM32G4xx_HAL_Driver/Src/stm32g4xx_hal_pcd.c ****         break;
 348:Drivers/STM32G4xx_HAL_Driver/Src/stm32g4xx_hal_pcd.c **** 
 349:Drivers/STM32G4xx_HAL_Driver/Src/stm32g4xx_hal_pcd.c ****       default :
 350:Drivers/STM32G4xx_HAL_Driver/Src/stm32g4xx_hal_pcd.c ****         /* Update the error code */
 351:Drivers/STM32G4xx_HAL_Driver/Src/stm32g4xx_hal_pcd.c ****         hpcd->ErrorCode |= HAL_PCD_ERROR_INVALID_CALLBACK;
 352:Drivers/STM32G4xx_HAL_Driver/Src/stm32g4xx_hal_pcd.c ****         /* Return error status */
 353:Drivers/STM32G4xx_HAL_Driver/Src/stm32g4xx_hal_pcd.c ****         status =  HAL_ERROR;
 354:Drivers/STM32G4xx_HAL_Driver/Src/stm32g4xx_hal_pcd.c ****         break;
 355:Drivers/STM32G4xx_HAL_Driver/Src/stm32g4xx_hal_pcd.c ****     }
ARM GAS  /var/folders/17/j_dgbcc52q10y0jc3c_zbwd80000gn/T//cc40SoIA.s 			page 12


 356:Drivers/STM32G4xx_HAL_Driver/Src/stm32g4xx_hal_pcd.c ****   }
 357:Drivers/STM32G4xx_HAL_Driver/Src/stm32g4xx_hal_pcd.c ****   else if (hpcd->State == HAL_PCD_STATE_RESET)
 358:Drivers/STM32G4xx_HAL_Driver/Src/stm32g4xx_hal_pcd.c ****   {
 359:Drivers/STM32G4xx_HAL_Driver/Src/stm32g4xx_hal_pcd.c ****     switch (CallbackID)
 360:Drivers/STM32G4xx_HAL_Driver/Src/stm32g4xx_hal_pcd.c ****     {
 361:Drivers/STM32G4xx_HAL_Driver/Src/stm32g4xx_hal_pcd.c ****       case HAL_PCD_MSPINIT_CB_ID :
 362:Drivers/STM32G4xx_HAL_Driver/Src/stm32g4xx_hal_pcd.c ****         hpcd->MspInitCallback = pCallback;
 363:Drivers/STM32G4xx_HAL_Driver/Src/stm32g4xx_hal_pcd.c ****         break;
 364:Drivers/STM32G4xx_HAL_Driver/Src/stm32g4xx_hal_pcd.c **** 
 365:Drivers/STM32G4xx_HAL_Driver/Src/stm32g4xx_hal_pcd.c ****       case HAL_PCD_MSPDEINIT_CB_ID :
 366:Drivers/STM32G4xx_HAL_Driver/Src/stm32g4xx_hal_pcd.c ****         hpcd->MspDeInitCallback = pCallback;
 367:Drivers/STM32G4xx_HAL_Driver/Src/stm32g4xx_hal_pcd.c ****         break;
 368:Drivers/STM32G4xx_HAL_Driver/Src/stm32g4xx_hal_pcd.c **** 
 369:Drivers/STM32G4xx_HAL_Driver/Src/stm32g4xx_hal_pcd.c ****       default :
 370:Drivers/STM32G4xx_HAL_Driver/Src/stm32g4xx_hal_pcd.c ****         /* Update the error code */
 371:Drivers/STM32G4xx_HAL_Driver/Src/stm32g4xx_hal_pcd.c ****         hpcd->ErrorCode |= HAL_PCD_ERROR_INVALID_CALLBACK;
 372:Drivers/STM32G4xx_HAL_Driver/Src/stm32g4xx_hal_pcd.c ****         /* Return error status */
 373:Drivers/STM32G4xx_HAL_Driver/Src/stm32g4xx_hal_pcd.c ****         status =  HAL_ERROR;
 374:Drivers/STM32G4xx_HAL_Driver/Src/stm32g4xx_hal_pcd.c ****         break;
 375:Drivers/STM32G4xx_HAL_Driver/Src/stm32g4xx_hal_pcd.c ****     }
 376:Drivers/STM32G4xx_HAL_Driver/Src/stm32g4xx_hal_pcd.c ****   }
 377:Drivers/STM32G4xx_HAL_Driver/Src/stm32g4xx_hal_pcd.c ****   else
 378:Drivers/STM32G4xx_HAL_Driver/Src/stm32g4xx_hal_pcd.c ****   {
 379:Drivers/STM32G4xx_HAL_Driver/Src/stm32g4xx_hal_pcd.c ****     /* Update the error code */
 380:Drivers/STM32G4xx_HAL_Driver/Src/stm32g4xx_hal_pcd.c ****     hpcd->ErrorCode |= HAL_PCD_ERROR_INVALID_CALLBACK;
 381:Drivers/STM32G4xx_HAL_Driver/Src/stm32g4xx_hal_pcd.c ****     /* Return error status */
 382:Drivers/STM32G4xx_HAL_Driver/Src/stm32g4xx_hal_pcd.c ****     status =  HAL_ERROR;
 383:Drivers/STM32G4xx_HAL_Driver/Src/stm32g4xx_hal_pcd.c ****   }
 384:Drivers/STM32G4xx_HAL_Driver/Src/stm32g4xx_hal_pcd.c **** 
 385:Drivers/STM32G4xx_HAL_Driver/Src/stm32g4xx_hal_pcd.c ****   /* Release Lock */
 386:Drivers/STM32G4xx_HAL_Driver/Src/stm32g4xx_hal_pcd.c ****   __HAL_UNLOCK(hpcd);
 387:Drivers/STM32G4xx_HAL_Driver/Src/stm32g4xx_hal_pcd.c ****   return status;
 388:Drivers/STM32G4xx_HAL_Driver/Src/stm32g4xx_hal_pcd.c **** }
 389:Drivers/STM32G4xx_HAL_Driver/Src/stm32g4xx_hal_pcd.c **** 
 390:Drivers/STM32G4xx_HAL_Driver/Src/stm32g4xx_hal_pcd.c **** /**
 391:Drivers/STM32G4xx_HAL_Driver/Src/stm32g4xx_hal_pcd.c ****   * @brief  Unregister an USB PCD Callback
 392:Drivers/STM32G4xx_HAL_Driver/Src/stm32g4xx_hal_pcd.c ****   *         USB PCD callabck is redirected to the weak predefined callback
 393:Drivers/STM32G4xx_HAL_Driver/Src/stm32g4xx_hal_pcd.c ****   * @param  hpcd USB PCD handle
 394:Drivers/STM32G4xx_HAL_Driver/Src/stm32g4xx_hal_pcd.c ****   * @param  CallbackID ID of the callback to be unregistered
 395:Drivers/STM32G4xx_HAL_Driver/Src/stm32g4xx_hal_pcd.c ****   *         This parameter can be one of the following values:
 396:Drivers/STM32G4xx_HAL_Driver/Src/stm32g4xx_hal_pcd.c ****   *          @arg @ref HAL_PCD_SOF_CB_ID USB PCD SOF callback ID
 397:Drivers/STM32G4xx_HAL_Driver/Src/stm32g4xx_hal_pcd.c ****   *          @arg @ref HAL_PCD_SETUPSTAGE_CB_ID USB PCD Setup callback ID
 398:Drivers/STM32G4xx_HAL_Driver/Src/stm32g4xx_hal_pcd.c ****   *          @arg @ref HAL_PCD_RESET_CB_ID USB PCD Reset callback ID
 399:Drivers/STM32G4xx_HAL_Driver/Src/stm32g4xx_hal_pcd.c ****   *          @arg @ref HAL_PCD_SUSPEND_CB_ID USB PCD Suspend callback ID
 400:Drivers/STM32G4xx_HAL_Driver/Src/stm32g4xx_hal_pcd.c ****   *          @arg @ref HAL_PCD_RESUME_CB_ID USB PCD Resume callback ID
 401:Drivers/STM32G4xx_HAL_Driver/Src/stm32g4xx_hal_pcd.c ****   *          @arg @ref HAL_PCD_CONNECT_CB_ID USB PCD Connect callback ID
 402:Drivers/STM32G4xx_HAL_Driver/Src/stm32g4xx_hal_pcd.c ****   *          @arg @ref HAL_PCD_DISCONNECT_CB_ID OTG PCD Disconnect callback ID
 403:Drivers/STM32G4xx_HAL_Driver/Src/stm32g4xx_hal_pcd.c ****   *          @arg @ref HAL_PCD_MSPINIT_CB_ID MspDeInit callback ID
 404:Drivers/STM32G4xx_HAL_Driver/Src/stm32g4xx_hal_pcd.c ****   *          @arg @ref HAL_PCD_MSPDEINIT_CB_ID MspDeInit callback ID
 405:Drivers/STM32G4xx_HAL_Driver/Src/stm32g4xx_hal_pcd.c ****   * @retval HAL status
 406:Drivers/STM32G4xx_HAL_Driver/Src/stm32g4xx_hal_pcd.c ****   */
 407:Drivers/STM32G4xx_HAL_Driver/Src/stm32g4xx_hal_pcd.c **** HAL_StatusTypeDef HAL_PCD_UnRegisterCallback(PCD_HandleTypeDef *hpcd, HAL_PCD_CallbackIDTypeDef Cal
 408:Drivers/STM32G4xx_HAL_Driver/Src/stm32g4xx_hal_pcd.c **** {
 409:Drivers/STM32G4xx_HAL_Driver/Src/stm32g4xx_hal_pcd.c ****   HAL_StatusTypeDef status = HAL_OK;
 410:Drivers/STM32G4xx_HAL_Driver/Src/stm32g4xx_hal_pcd.c **** 
 411:Drivers/STM32G4xx_HAL_Driver/Src/stm32g4xx_hal_pcd.c ****   /* Process locked */
 412:Drivers/STM32G4xx_HAL_Driver/Src/stm32g4xx_hal_pcd.c ****   __HAL_LOCK(hpcd);
ARM GAS  /var/folders/17/j_dgbcc52q10y0jc3c_zbwd80000gn/T//cc40SoIA.s 			page 13


 413:Drivers/STM32G4xx_HAL_Driver/Src/stm32g4xx_hal_pcd.c **** 
 414:Drivers/STM32G4xx_HAL_Driver/Src/stm32g4xx_hal_pcd.c ****   /* Setup Legacy weak Callbacks  */
 415:Drivers/STM32G4xx_HAL_Driver/Src/stm32g4xx_hal_pcd.c ****   if (hpcd->State == HAL_PCD_STATE_READY)
 416:Drivers/STM32G4xx_HAL_Driver/Src/stm32g4xx_hal_pcd.c ****   {
 417:Drivers/STM32G4xx_HAL_Driver/Src/stm32g4xx_hal_pcd.c ****     switch (CallbackID)
 418:Drivers/STM32G4xx_HAL_Driver/Src/stm32g4xx_hal_pcd.c ****     {
 419:Drivers/STM32G4xx_HAL_Driver/Src/stm32g4xx_hal_pcd.c ****       case HAL_PCD_SOF_CB_ID :
 420:Drivers/STM32G4xx_HAL_Driver/Src/stm32g4xx_hal_pcd.c ****         hpcd->SOFCallback = HAL_PCD_SOFCallback;
 421:Drivers/STM32G4xx_HAL_Driver/Src/stm32g4xx_hal_pcd.c ****         break;
 422:Drivers/STM32G4xx_HAL_Driver/Src/stm32g4xx_hal_pcd.c **** 
 423:Drivers/STM32G4xx_HAL_Driver/Src/stm32g4xx_hal_pcd.c ****       case HAL_PCD_SETUPSTAGE_CB_ID :
 424:Drivers/STM32G4xx_HAL_Driver/Src/stm32g4xx_hal_pcd.c ****         hpcd->SetupStageCallback = HAL_PCD_SetupStageCallback;
 425:Drivers/STM32G4xx_HAL_Driver/Src/stm32g4xx_hal_pcd.c ****         break;
 426:Drivers/STM32G4xx_HAL_Driver/Src/stm32g4xx_hal_pcd.c **** 
 427:Drivers/STM32G4xx_HAL_Driver/Src/stm32g4xx_hal_pcd.c ****       case HAL_PCD_RESET_CB_ID :
 428:Drivers/STM32G4xx_HAL_Driver/Src/stm32g4xx_hal_pcd.c ****         hpcd->ResetCallback = HAL_PCD_ResetCallback;
 429:Drivers/STM32G4xx_HAL_Driver/Src/stm32g4xx_hal_pcd.c ****         break;
 430:Drivers/STM32G4xx_HAL_Driver/Src/stm32g4xx_hal_pcd.c **** 
 431:Drivers/STM32G4xx_HAL_Driver/Src/stm32g4xx_hal_pcd.c ****       case HAL_PCD_SUSPEND_CB_ID :
 432:Drivers/STM32G4xx_HAL_Driver/Src/stm32g4xx_hal_pcd.c ****         hpcd->SuspendCallback = HAL_PCD_SuspendCallback;
 433:Drivers/STM32G4xx_HAL_Driver/Src/stm32g4xx_hal_pcd.c ****         break;
 434:Drivers/STM32G4xx_HAL_Driver/Src/stm32g4xx_hal_pcd.c **** 
 435:Drivers/STM32G4xx_HAL_Driver/Src/stm32g4xx_hal_pcd.c ****       case HAL_PCD_RESUME_CB_ID :
 436:Drivers/STM32G4xx_HAL_Driver/Src/stm32g4xx_hal_pcd.c ****         hpcd->ResumeCallback = HAL_PCD_ResumeCallback;
 437:Drivers/STM32G4xx_HAL_Driver/Src/stm32g4xx_hal_pcd.c ****         break;
 438:Drivers/STM32G4xx_HAL_Driver/Src/stm32g4xx_hal_pcd.c **** 
 439:Drivers/STM32G4xx_HAL_Driver/Src/stm32g4xx_hal_pcd.c ****       case HAL_PCD_CONNECT_CB_ID :
 440:Drivers/STM32G4xx_HAL_Driver/Src/stm32g4xx_hal_pcd.c ****         hpcd->ConnectCallback = HAL_PCD_ConnectCallback;
 441:Drivers/STM32G4xx_HAL_Driver/Src/stm32g4xx_hal_pcd.c ****         break;
 442:Drivers/STM32G4xx_HAL_Driver/Src/stm32g4xx_hal_pcd.c **** 
 443:Drivers/STM32G4xx_HAL_Driver/Src/stm32g4xx_hal_pcd.c ****       case HAL_PCD_DISCONNECT_CB_ID :
 444:Drivers/STM32G4xx_HAL_Driver/Src/stm32g4xx_hal_pcd.c ****         hpcd->DisconnectCallback = HAL_PCD_DisconnectCallback;
 445:Drivers/STM32G4xx_HAL_Driver/Src/stm32g4xx_hal_pcd.c ****         break;
 446:Drivers/STM32G4xx_HAL_Driver/Src/stm32g4xx_hal_pcd.c **** 
 447:Drivers/STM32G4xx_HAL_Driver/Src/stm32g4xx_hal_pcd.c ****       case HAL_PCD_MSPINIT_CB_ID :
 448:Drivers/STM32G4xx_HAL_Driver/Src/stm32g4xx_hal_pcd.c ****         hpcd->MspInitCallback = HAL_PCD_MspInit;
 449:Drivers/STM32G4xx_HAL_Driver/Src/stm32g4xx_hal_pcd.c ****         break;
 450:Drivers/STM32G4xx_HAL_Driver/Src/stm32g4xx_hal_pcd.c **** 
 451:Drivers/STM32G4xx_HAL_Driver/Src/stm32g4xx_hal_pcd.c ****       case HAL_PCD_MSPDEINIT_CB_ID :
 452:Drivers/STM32G4xx_HAL_Driver/Src/stm32g4xx_hal_pcd.c ****         hpcd->MspDeInitCallback = HAL_PCD_MspDeInit;
 453:Drivers/STM32G4xx_HAL_Driver/Src/stm32g4xx_hal_pcd.c ****         break;
 454:Drivers/STM32G4xx_HAL_Driver/Src/stm32g4xx_hal_pcd.c **** 
 455:Drivers/STM32G4xx_HAL_Driver/Src/stm32g4xx_hal_pcd.c ****       default :
 456:Drivers/STM32G4xx_HAL_Driver/Src/stm32g4xx_hal_pcd.c ****         /* Update the error code */
 457:Drivers/STM32G4xx_HAL_Driver/Src/stm32g4xx_hal_pcd.c ****         hpcd->ErrorCode |= HAL_PCD_ERROR_INVALID_CALLBACK;
 458:Drivers/STM32G4xx_HAL_Driver/Src/stm32g4xx_hal_pcd.c **** 
 459:Drivers/STM32G4xx_HAL_Driver/Src/stm32g4xx_hal_pcd.c ****         /* Return error status */
 460:Drivers/STM32G4xx_HAL_Driver/Src/stm32g4xx_hal_pcd.c ****         status =  HAL_ERROR;
 461:Drivers/STM32G4xx_HAL_Driver/Src/stm32g4xx_hal_pcd.c ****         break;
 462:Drivers/STM32G4xx_HAL_Driver/Src/stm32g4xx_hal_pcd.c ****     }
 463:Drivers/STM32G4xx_HAL_Driver/Src/stm32g4xx_hal_pcd.c ****   }
 464:Drivers/STM32G4xx_HAL_Driver/Src/stm32g4xx_hal_pcd.c ****   else if (hpcd->State == HAL_PCD_STATE_RESET)
 465:Drivers/STM32G4xx_HAL_Driver/Src/stm32g4xx_hal_pcd.c ****   {
 466:Drivers/STM32G4xx_HAL_Driver/Src/stm32g4xx_hal_pcd.c ****     switch (CallbackID)
 467:Drivers/STM32G4xx_HAL_Driver/Src/stm32g4xx_hal_pcd.c ****     {
 468:Drivers/STM32G4xx_HAL_Driver/Src/stm32g4xx_hal_pcd.c ****       case HAL_PCD_MSPINIT_CB_ID :
 469:Drivers/STM32G4xx_HAL_Driver/Src/stm32g4xx_hal_pcd.c ****         hpcd->MspInitCallback = HAL_PCD_MspInit;
ARM GAS  /var/folders/17/j_dgbcc52q10y0jc3c_zbwd80000gn/T//cc40SoIA.s 			page 14


 470:Drivers/STM32G4xx_HAL_Driver/Src/stm32g4xx_hal_pcd.c ****         break;
 471:Drivers/STM32G4xx_HAL_Driver/Src/stm32g4xx_hal_pcd.c **** 
 472:Drivers/STM32G4xx_HAL_Driver/Src/stm32g4xx_hal_pcd.c ****       case HAL_PCD_MSPDEINIT_CB_ID :
 473:Drivers/STM32G4xx_HAL_Driver/Src/stm32g4xx_hal_pcd.c ****         hpcd->MspDeInitCallback = HAL_PCD_MspDeInit;
 474:Drivers/STM32G4xx_HAL_Driver/Src/stm32g4xx_hal_pcd.c ****         break;
 475:Drivers/STM32G4xx_HAL_Driver/Src/stm32g4xx_hal_pcd.c **** 
 476:Drivers/STM32G4xx_HAL_Driver/Src/stm32g4xx_hal_pcd.c ****       default :
 477:Drivers/STM32G4xx_HAL_Driver/Src/stm32g4xx_hal_pcd.c ****         /* Update the error code */
 478:Drivers/STM32G4xx_HAL_Driver/Src/stm32g4xx_hal_pcd.c ****         hpcd->ErrorCode |= HAL_PCD_ERROR_INVALID_CALLBACK;
 479:Drivers/STM32G4xx_HAL_Driver/Src/stm32g4xx_hal_pcd.c **** 
 480:Drivers/STM32G4xx_HAL_Driver/Src/stm32g4xx_hal_pcd.c ****         /* Return error status */
 481:Drivers/STM32G4xx_HAL_Driver/Src/stm32g4xx_hal_pcd.c ****         status =  HAL_ERROR;
 482:Drivers/STM32G4xx_HAL_Driver/Src/stm32g4xx_hal_pcd.c ****         break;
 483:Drivers/STM32G4xx_HAL_Driver/Src/stm32g4xx_hal_pcd.c ****     }
 484:Drivers/STM32G4xx_HAL_Driver/Src/stm32g4xx_hal_pcd.c ****   }
 485:Drivers/STM32G4xx_HAL_Driver/Src/stm32g4xx_hal_pcd.c ****   else
 486:Drivers/STM32G4xx_HAL_Driver/Src/stm32g4xx_hal_pcd.c ****   {
 487:Drivers/STM32G4xx_HAL_Driver/Src/stm32g4xx_hal_pcd.c ****     /* Update the error code */
 488:Drivers/STM32G4xx_HAL_Driver/Src/stm32g4xx_hal_pcd.c ****     hpcd->ErrorCode |= HAL_PCD_ERROR_INVALID_CALLBACK;
 489:Drivers/STM32G4xx_HAL_Driver/Src/stm32g4xx_hal_pcd.c **** 
 490:Drivers/STM32G4xx_HAL_Driver/Src/stm32g4xx_hal_pcd.c ****     /* Return error status */
 491:Drivers/STM32G4xx_HAL_Driver/Src/stm32g4xx_hal_pcd.c ****     status =  HAL_ERROR;
 492:Drivers/STM32G4xx_HAL_Driver/Src/stm32g4xx_hal_pcd.c ****   }
 493:Drivers/STM32G4xx_HAL_Driver/Src/stm32g4xx_hal_pcd.c **** 
 494:Drivers/STM32G4xx_HAL_Driver/Src/stm32g4xx_hal_pcd.c ****   /* Release Lock */
 495:Drivers/STM32G4xx_HAL_Driver/Src/stm32g4xx_hal_pcd.c ****   __HAL_UNLOCK(hpcd);
 496:Drivers/STM32G4xx_HAL_Driver/Src/stm32g4xx_hal_pcd.c ****   return status;
 497:Drivers/STM32G4xx_HAL_Driver/Src/stm32g4xx_hal_pcd.c **** }
 498:Drivers/STM32G4xx_HAL_Driver/Src/stm32g4xx_hal_pcd.c **** 
 499:Drivers/STM32G4xx_HAL_Driver/Src/stm32g4xx_hal_pcd.c **** /**
 500:Drivers/STM32G4xx_HAL_Driver/Src/stm32g4xx_hal_pcd.c ****   * @brief  Register USB PCD Data OUT Stage Callback
 501:Drivers/STM32G4xx_HAL_Driver/Src/stm32g4xx_hal_pcd.c ****   *         To be used instead of the weak HAL_PCD_DataOutStageCallback() predefined callback
 502:Drivers/STM32G4xx_HAL_Driver/Src/stm32g4xx_hal_pcd.c ****   * @param  hpcd PCD handle
 503:Drivers/STM32G4xx_HAL_Driver/Src/stm32g4xx_hal_pcd.c ****   * @param  pCallback pointer to the USB PCD Data OUT Stage Callback function
 504:Drivers/STM32G4xx_HAL_Driver/Src/stm32g4xx_hal_pcd.c ****   * @retval HAL status
 505:Drivers/STM32G4xx_HAL_Driver/Src/stm32g4xx_hal_pcd.c ****   */
 506:Drivers/STM32G4xx_HAL_Driver/Src/stm32g4xx_hal_pcd.c **** HAL_StatusTypeDef HAL_PCD_RegisterDataOutStageCallback(PCD_HandleTypeDef *hpcd, pPCD_DataOutStageCa
 507:Drivers/STM32G4xx_HAL_Driver/Src/stm32g4xx_hal_pcd.c **** {
 508:Drivers/STM32G4xx_HAL_Driver/Src/stm32g4xx_hal_pcd.c ****   HAL_StatusTypeDef status = HAL_OK;
 509:Drivers/STM32G4xx_HAL_Driver/Src/stm32g4xx_hal_pcd.c **** 
 510:Drivers/STM32G4xx_HAL_Driver/Src/stm32g4xx_hal_pcd.c ****   if (pCallback == NULL)
 511:Drivers/STM32G4xx_HAL_Driver/Src/stm32g4xx_hal_pcd.c ****   {
 512:Drivers/STM32G4xx_HAL_Driver/Src/stm32g4xx_hal_pcd.c ****     /* Update the error code */
 513:Drivers/STM32G4xx_HAL_Driver/Src/stm32g4xx_hal_pcd.c ****     hpcd->ErrorCode |= HAL_PCD_ERROR_INVALID_CALLBACK;
 514:Drivers/STM32G4xx_HAL_Driver/Src/stm32g4xx_hal_pcd.c **** 
 515:Drivers/STM32G4xx_HAL_Driver/Src/stm32g4xx_hal_pcd.c ****     return HAL_ERROR;
 516:Drivers/STM32G4xx_HAL_Driver/Src/stm32g4xx_hal_pcd.c ****   }
 517:Drivers/STM32G4xx_HAL_Driver/Src/stm32g4xx_hal_pcd.c **** 
 518:Drivers/STM32G4xx_HAL_Driver/Src/stm32g4xx_hal_pcd.c ****   /* Process locked */
 519:Drivers/STM32G4xx_HAL_Driver/Src/stm32g4xx_hal_pcd.c ****   __HAL_LOCK(hpcd);
 520:Drivers/STM32G4xx_HAL_Driver/Src/stm32g4xx_hal_pcd.c **** 
 521:Drivers/STM32G4xx_HAL_Driver/Src/stm32g4xx_hal_pcd.c ****   if (hpcd->State == HAL_PCD_STATE_READY)
 522:Drivers/STM32G4xx_HAL_Driver/Src/stm32g4xx_hal_pcd.c ****   {
 523:Drivers/STM32G4xx_HAL_Driver/Src/stm32g4xx_hal_pcd.c ****     hpcd->DataOutStageCallback = pCallback;
 524:Drivers/STM32G4xx_HAL_Driver/Src/stm32g4xx_hal_pcd.c ****   }
 525:Drivers/STM32G4xx_HAL_Driver/Src/stm32g4xx_hal_pcd.c ****   else
 526:Drivers/STM32G4xx_HAL_Driver/Src/stm32g4xx_hal_pcd.c ****   {
ARM GAS  /var/folders/17/j_dgbcc52q10y0jc3c_zbwd80000gn/T//cc40SoIA.s 			page 15


 527:Drivers/STM32G4xx_HAL_Driver/Src/stm32g4xx_hal_pcd.c ****     /* Update the error code */
 528:Drivers/STM32G4xx_HAL_Driver/Src/stm32g4xx_hal_pcd.c ****     hpcd->ErrorCode |= HAL_PCD_ERROR_INVALID_CALLBACK;
 529:Drivers/STM32G4xx_HAL_Driver/Src/stm32g4xx_hal_pcd.c **** 
 530:Drivers/STM32G4xx_HAL_Driver/Src/stm32g4xx_hal_pcd.c ****     /* Return error status */
 531:Drivers/STM32G4xx_HAL_Driver/Src/stm32g4xx_hal_pcd.c ****     status =  HAL_ERROR;
 532:Drivers/STM32G4xx_HAL_Driver/Src/stm32g4xx_hal_pcd.c ****   }
 533:Drivers/STM32G4xx_HAL_Driver/Src/stm32g4xx_hal_pcd.c **** 
 534:Drivers/STM32G4xx_HAL_Driver/Src/stm32g4xx_hal_pcd.c ****   /* Release Lock */
 535:Drivers/STM32G4xx_HAL_Driver/Src/stm32g4xx_hal_pcd.c ****   __HAL_UNLOCK(hpcd);
 536:Drivers/STM32G4xx_HAL_Driver/Src/stm32g4xx_hal_pcd.c **** 
 537:Drivers/STM32G4xx_HAL_Driver/Src/stm32g4xx_hal_pcd.c ****   return status;
 538:Drivers/STM32G4xx_HAL_Driver/Src/stm32g4xx_hal_pcd.c **** }
 539:Drivers/STM32G4xx_HAL_Driver/Src/stm32g4xx_hal_pcd.c **** 
 540:Drivers/STM32G4xx_HAL_Driver/Src/stm32g4xx_hal_pcd.c **** /**
 541:Drivers/STM32G4xx_HAL_Driver/Src/stm32g4xx_hal_pcd.c ****   * @brief  UnRegister the USB PCD Data OUT Stage Callback
 542:Drivers/STM32G4xx_HAL_Driver/Src/stm32g4xx_hal_pcd.c ****   *         USB PCD Data OUT Stage Callback is redirected to the weak HAL_PCD_DataOutStageCallback(
 543:Drivers/STM32G4xx_HAL_Driver/Src/stm32g4xx_hal_pcd.c ****   * @param  hpcd PCD handle
 544:Drivers/STM32G4xx_HAL_Driver/Src/stm32g4xx_hal_pcd.c ****   * @retval HAL status
 545:Drivers/STM32G4xx_HAL_Driver/Src/stm32g4xx_hal_pcd.c ****   */
 546:Drivers/STM32G4xx_HAL_Driver/Src/stm32g4xx_hal_pcd.c **** HAL_StatusTypeDef HAL_PCD_UnRegisterDataOutStageCallback(PCD_HandleTypeDef *hpcd)
 547:Drivers/STM32G4xx_HAL_Driver/Src/stm32g4xx_hal_pcd.c **** {
 548:Drivers/STM32G4xx_HAL_Driver/Src/stm32g4xx_hal_pcd.c ****   HAL_StatusTypeDef status = HAL_OK;
 549:Drivers/STM32G4xx_HAL_Driver/Src/stm32g4xx_hal_pcd.c **** 
 550:Drivers/STM32G4xx_HAL_Driver/Src/stm32g4xx_hal_pcd.c ****   /* Process locked */
 551:Drivers/STM32G4xx_HAL_Driver/Src/stm32g4xx_hal_pcd.c ****   __HAL_LOCK(hpcd);
 552:Drivers/STM32G4xx_HAL_Driver/Src/stm32g4xx_hal_pcd.c **** 
 553:Drivers/STM32G4xx_HAL_Driver/Src/stm32g4xx_hal_pcd.c ****   if (hpcd->State == HAL_PCD_STATE_READY)
 554:Drivers/STM32G4xx_HAL_Driver/Src/stm32g4xx_hal_pcd.c ****   {
 555:Drivers/STM32G4xx_HAL_Driver/Src/stm32g4xx_hal_pcd.c ****     hpcd->DataOutStageCallback = HAL_PCD_DataOutStageCallback; /* Legacy weak DataOutStageCallback 
 556:Drivers/STM32G4xx_HAL_Driver/Src/stm32g4xx_hal_pcd.c ****   }
 557:Drivers/STM32G4xx_HAL_Driver/Src/stm32g4xx_hal_pcd.c ****   else
 558:Drivers/STM32G4xx_HAL_Driver/Src/stm32g4xx_hal_pcd.c ****   {
 559:Drivers/STM32G4xx_HAL_Driver/Src/stm32g4xx_hal_pcd.c ****     /* Update the error code */
 560:Drivers/STM32G4xx_HAL_Driver/Src/stm32g4xx_hal_pcd.c ****     hpcd->ErrorCode |= HAL_PCD_ERROR_INVALID_CALLBACK;
 561:Drivers/STM32G4xx_HAL_Driver/Src/stm32g4xx_hal_pcd.c **** 
 562:Drivers/STM32G4xx_HAL_Driver/Src/stm32g4xx_hal_pcd.c ****     /* Return error status */
 563:Drivers/STM32G4xx_HAL_Driver/Src/stm32g4xx_hal_pcd.c ****     status =  HAL_ERROR;
 564:Drivers/STM32G4xx_HAL_Driver/Src/stm32g4xx_hal_pcd.c ****   }
 565:Drivers/STM32G4xx_HAL_Driver/Src/stm32g4xx_hal_pcd.c **** 
 566:Drivers/STM32G4xx_HAL_Driver/Src/stm32g4xx_hal_pcd.c ****   /* Release Lock */
 567:Drivers/STM32G4xx_HAL_Driver/Src/stm32g4xx_hal_pcd.c ****   __HAL_UNLOCK(hpcd);
 568:Drivers/STM32G4xx_HAL_Driver/Src/stm32g4xx_hal_pcd.c **** 
 569:Drivers/STM32G4xx_HAL_Driver/Src/stm32g4xx_hal_pcd.c ****   return status;
 570:Drivers/STM32G4xx_HAL_Driver/Src/stm32g4xx_hal_pcd.c **** }
 571:Drivers/STM32G4xx_HAL_Driver/Src/stm32g4xx_hal_pcd.c **** 
 572:Drivers/STM32G4xx_HAL_Driver/Src/stm32g4xx_hal_pcd.c **** /**
 573:Drivers/STM32G4xx_HAL_Driver/Src/stm32g4xx_hal_pcd.c ****   * @brief  Register USB PCD Data IN Stage Callback
 574:Drivers/STM32G4xx_HAL_Driver/Src/stm32g4xx_hal_pcd.c ****   *         To be used instead of the weak HAL_PCD_DataInStageCallback() predefined callback
 575:Drivers/STM32G4xx_HAL_Driver/Src/stm32g4xx_hal_pcd.c ****   * @param  hpcd PCD handle
 576:Drivers/STM32G4xx_HAL_Driver/Src/stm32g4xx_hal_pcd.c ****   * @param  pCallback pointer to the USB PCD Data IN Stage Callback function
 577:Drivers/STM32G4xx_HAL_Driver/Src/stm32g4xx_hal_pcd.c ****   * @retval HAL status
 578:Drivers/STM32G4xx_HAL_Driver/Src/stm32g4xx_hal_pcd.c ****   */
 579:Drivers/STM32G4xx_HAL_Driver/Src/stm32g4xx_hal_pcd.c **** HAL_StatusTypeDef HAL_PCD_RegisterDataInStageCallback(PCD_HandleTypeDef *hpcd, pPCD_DataInStageCall
 580:Drivers/STM32G4xx_HAL_Driver/Src/stm32g4xx_hal_pcd.c **** {
 581:Drivers/STM32G4xx_HAL_Driver/Src/stm32g4xx_hal_pcd.c ****   HAL_StatusTypeDef status = HAL_OK;
 582:Drivers/STM32G4xx_HAL_Driver/Src/stm32g4xx_hal_pcd.c **** 
 583:Drivers/STM32G4xx_HAL_Driver/Src/stm32g4xx_hal_pcd.c ****   if (pCallback == NULL)
ARM GAS  /var/folders/17/j_dgbcc52q10y0jc3c_zbwd80000gn/T//cc40SoIA.s 			page 16


 584:Drivers/STM32G4xx_HAL_Driver/Src/stm32g4xx_hal_pcd.c ****   {
 585:Drivers/STM32G4xx_HAL_Driver/Src/stm32g4xx_hal_pcd.c ****     /* Update the error code */
 586:Drivers/STM32G4xx_HAL_Driver/Src/stm32g4xx_hal_pcd.c ****     hpcd->ErrorCode |= HAL_PCD_ERROR_INVALID_CALLBACK;
 587:Drivers/STM32G4xx_HAL_Driver/Src/stm32g4xx_hal_pcd.c **** 
 588:Drivers/STM32G4xx_HAL_Driver/Src/stm32g4xx_hal_pcd.c ****     return HAL_ERROR;
 589:Drivers/STM32G4xx_HAL_Driver/Src/stm32g4xx_hal_pcd.c ****   }
 590:Drivers/STM32G4xx_HAL_Driver/Src/stm32g4xx_hal_pcd.c **** 
 591:Drivers/STM32G4xx_HAL_Driver/Src/stm32g4xx_hal_pcd.c ****   /* Process locked */
 592:Drivers/STM32G4xx_HAL_Driver/Src/stm32g4xx_hal_pcd.c ****   __HAL_LOCK(hpcd);
 593:Drivers/STM32G4xx_HAL_Driver/Src/stm32g4xx_hal_pcd.c **** 
 594:Drivers/STM32G4xx_HAL_Driver/Src/stm32g4xx_hal_pcd.c ****   if (hpcd->State == HAL_PCD_STATE_READY)
 595:Drivers/STM32G4xx_HAL_Driver/Src/stm32g4xx_hal_pcd.c ****   {
 596:Drivers/STM32G4xx_HAL_Driver/Src/stm32g4xx_hal_pcd.c ****     hpcd->DataInStageCallback = pCallback;
 597:Drivers/STM32G4xx_HAL_Driver/Src/stm32g4xx_hal_pcd.c ****   }
 598:Drivers/STM32G4xx_HAL_Driver/Src/stm32g4xx_hal_pcd.c ****   else
 599:Drivers/STM32G4xx_HAL_Driver/Src/stm32g4xx_hal_pcd.c ****   {
 600:Drivers/STM32G4xx_HAL_Driver/Src/stm32g4xx_hal_pcd.c ****     /* Update the error code */
 601:Drivers/STM32G4xx_HAL_Driver/Src/stm32g4xx_hal_pcd.c ****     hpcd->ErrorCode |= HAL_PCD_ERROR_INVALID_CALLBACK;
 602:Drivers/STM32G4xx_HAL_Driver/Src/stm32g4xx_hal_pcd.c **** 
 603:Drivers/STM32G4xx_HAL_Driver/Src/stm32g4xx_hal_pcd.c ****     /* Return error status */
 604:Drivers/STM32G4xx_HAL_Driver/Src/stm32g4xx_hal_pcd.c ****     status =  HAL_ERROR;
 605:Drivers/STM32G4xx_HAL_Driver/Src/stm32g4xx_hal_pcd.c ****   }
 606:Drivers/STM32G4xx_HAL_Driver/Src/stm32g4xx_hal_pcd.c **** 
 607:Drivers/STM32G4xx_HAL_Driver/Src/stm32g4xx_hal_pcd.c ****   /* Release Lock */
 608:Drivers/STM32G4xx_HAL_Driver/Src/stm32g4xx_hal_pcd.c ****   __HAL_UNLOCK(hpcd);
 609:Drivers/STM32G4xx_HAL_Driver/Src/stm32g4xx_hal_pcd.c **** 
 610:Drivers/STM32G4xx_HAL_Driver/Src/stm32g4xx_hal_pcd.c ****   return status;
 611:Drivers/STM32G4xx_HAL_Driver/Src/stm32g4xx_hal_pcd.c **** }
 612:Drivers/STM32G4xx_HAL_Driver/Src/stm32g4xx_hal_pcd.c **** 
 613:Drivers/STM32G4xx_HAL_Driver/Src/stm32g4xx_hal_pcd.c **** /**
 614:Drivers/STM32G4xx_HAL_Driver/Src/stm32g4xx_hal_pcd.c ****   * @brief  UnRegister the USB PCD Data IN Stage Callback
 615:Drivers/STM32G4xx_HAL_Driver/Src/stm32g4xx_hal_pcd.c ****   *         USB PCD Data OUT Stage Callback is redirected to the weak HAL_PCD_DataInStageCallback()
 616:Drivers/STM32G4xx_HAL_Driver/Src/stm32g4xx_hal_pcd.c ****   * @param  hpcd PCD handle
 617:Drivers/STM32G4xx_HAL_Driver/Src/stm32g4xx_hal_pcd.c ****   * @retval HAL status
 618:Drivers/STM32G4xx_HAL_Driver/Src/stm32g4xx_hal_pcd.c ****   */
 619:Drivers/STM32G4xx_HAL_Driver/Src/stm32g4xx_hal_pcd.c **** HAL_StatusTypeDef HAL_PCD_UnRegisterDataInStageCallback(PCD_HandleTypeDef *hpcd)
 620:Drivers/STM32G4xx_HAL_Driver/Src/stm32g4xx_hal_pcd.c **** {
 621:Drivers/STM32G4xx_HAL_Driver/Src/stm32g4xx_hal_pcd.c ****   HAL_StatusTypeDef status = HAL_OK;
 622:Drivers/STM32G4xx_HAL_Driver/Src/stm32g4xx_hal_pcd.c **** 
 623:Drivers/STM32G4xx_HAL_Driver/Src/stm32g4xx_hal_pcd.c ****   /* Process locked */
 624:Drivers/STM32G4xx_HAL_Driver/Src/stm32g4xx_hal_pcd.c ****   __HAL_LOCK(hpcd);
 625:Drivers/STM32G4xx_HAL_Driver/Src/stm32g4xx_hal_pcd.c **** 
 626:Drivers/STM32G4xx_HAL_Driver/Src/stm32g4xx_hal_pcd.c ****   if (hpcd->State == HAL_PCD_STATE_READY)
 627:Drivers/STM32G4xx_HAL_Driver/Src/stm32g4xx_hal_pcd.c ****   {
 628:Drivers/STM32G4xx_HAL_Driver/Src/stm32g4xx_hal_pcd.c ****     hpcd->DataInStageCallback = HAL_PCD_DataInStageCallback; /* Legacy weak DataInStageCallback  */
 629:Drivers/STM32G4xx_HAL_Driver/Src/stm32g4xx_hal_pcd.c ****   }
 630:Drivers/STM32G4xx_HAL_Driver/Src/stm32g4xx_hal_pcd.c ****   else
 631:Drivers/STM32G4xx_HAL_Driver/Src/stm32g4xx_hal_pcd.c ****   {
 632:Drivers/STM32G4xx_HAL_Driver/Src/stm32g4xx_hal_pcd.c ****     /* Update the error code */
 633:Drivers/STM32G4xx_HAL_Driver/Src/stm32g4xx_hal_pcd.c ****     hpcd->ErrorCode |= HAL_PCD_ERROR_INVALID_CALLBACK;
 634:Drivers/STM32G4xx_HAL_Driver/Src/stm32g4xx_hal_pcd.c **** 
 635:Drivers/STM32G4xx_HAL_Driver/Src/stm32g4xx_hal_pcd.c ****     /* Return error status */
 636:Drivers/STM32G4xx_HAL_Driver/Src/stm32g4xx_hal_pcd.c ****     status =  HAL_ERROR;
 637:Drivers/STM32G4xx_HAL_Driver/Src/stm32g4xx_hal_pcd.c ****   }
 638:Drivers/STM32G4xx_HAL_Driver/Src/stm32g4xx_hal_pcd.c **** 
 639:Drivers/STM32G4xx_HAL_Driver/Src/stm32g4xx_hal_pcd.c ****   /* Release Lock */
 640:Drivers/STM32G4xx_HAL_Driver/Src/stm32g4xx_hal_pcd.c ****   __HAL_UNLOCK(hpcd);
ARM GAS  /var/folders/17/j_dgbcc52q10y0jc3c_zbwd80000gn/T//cc40SoIA.s 			page 17


 641:Drivers/STM32G4xx_HAL_Driver/Src/stm32g4xx_hal_pcd.c **** 
 642:Drivers/STM32G4xx_HAL_Driver/Src/stm32g4xx_hal_pcd.c ****   return status;
 643:Drivers/STM32G4xx_HAL_Driver/Src/stm32g4xx_hal_pcd.c **** }
 644:Drivers/STM32G4xx_HAL_Driver/Src/stm32g4xx_hal_pcd.c **** 
 645:Drivers/STM32G4xx_HAL_Driver/Src/stm32g4xx_hal_pcd.c **** /**
 646:Drivers/STM32G4xx_HAL_Driver/Src/stm32g4xx_hal_pcd.c ****   * @brief  Register USB PCD Iso OUT incomplete Callback
 647:Drivers/STM32G4xx_HAL_Driver/Src/stm32g4xx_hal_pcd.c ****   *         To be used instead of the weak HAL_PCD_ISOOUTIncompleteCallback() predefined callback
 648:Drivers/STM32G4xx_HAL_Driver/Src/stm32g4xx_hal_pcd.c ****   * @param  hpcd PCD handle
 649:Drivers/STM32G4xx_HAL_Driver/Src/stm32g4xx_hal_pcd.c ****   * @param  pCallback pointer to the USB PCD Iso OUT incomplete Callback function
 650:Drivers/STM32G4xx_HAL_Driver/Src/stm32g4xx_hal_pcd.c ****   * @retval HAL status
 651:Drivers/STM32G4xx_HAL_Driver/Src/stm32g4xx_hal_pcd.c ****   */
 652:Drivers/STM32G4xx_HAL_Driver/Src/stm32g4xx_hal_pcd.c **** HAL_StatusTypeDef HAL_PCD_RegisterIsoOutIncpltCallback(PCD_HandleTypeDef *hpcd, pPCD_IsoOutIncpltCa
 653:Drivers/STM32G4xx_HAL_Driver/Src/stm32g4xx_hal_pcd.c **** {
 654:Drivers/STM32G4xx_HAL_Driver/Src/stm32g4xx_hal_pcd.c ****   HAL_StatusTypeDef status = HAL_OK;
 655:Drivers/STM32G4xx_HAL_Driver/Src/stm32g4xx_hal_pcd.c **** 
 656:Drivers/STM32G4xx_HAL_Driver/Src/stm32g4xx_hal_pcd.c ****   if (pCallback == NULL)
 657:Drivers/STM32G4xx_HAL_Driver/Src/stm32g4xx_hal_pcd.c ****   {
 658:Drivers/STM32G4xx_HAL_Driver/Src/stm32g4xx_hal_pcd.c ****     /* Update the error code */
 659:Drivers/STM32G4xx_HAL_Driver/Src/stm32g4xx_hal_pcd.c ****     hpcd->ErrorCode |= HAL_PCD_ERROR_INVALID_CALLBACK;
 660:Drivers/STM32G4xx_HAL_Driver/Src/stm32g4xx_hal_pcd.c **** 
 661:Drivers/STM32G4xx_HAL_Driver/Src/stm32g4xx_hal_pcd.c ****     return HAL_ERROR;
 662:Drivers/STM32G4xx_HAL_Driver/Src/stm32g4xx_hal_pcd.c ****   }
 663:Drivers/STM32G4xx_HAL_Driver/Src/stm32g4xx_hal_pcd.c **** 
 664:Drivers/STM32G4xx_HAL_Driver/Src/stm32g4xx_hal_pcd.c ****   /* Process locked */
 665:Drivers/STM32G4xx_HAL_Driver/Src/stm32g4xx_hal_pcd.c ****   __HAL_LOCK(hpcd);
 666:Drivers/STM32G4xx_HAL_Driver/Src/stm32g4xx_hal_pcd.c **** 
 667:Drivers/STM32G4xx_HAL_Driver/Src/stm32g4xx_hal_pcd.c ****   if (hpcd->State == HAL_PCD_STATE_READY)
 668:Drivers/STM32G4xx_HAL_Driver/Src/stm32g4xx_hal_pcd.c ****   {
 669:Drivers/STM32G4xx_HAL_Driver/Src/stm32g4xx_hal_pcd.c ****     hpcd->ISOOUTIncompleteCallback = pCallback;
 670:Drivers/STM32G4xx_HAL_Driver/Src/stm32g4xx_hal_pcd.c ****   }
 671:Drivers/STM32G4xx_HAL_Driver/Src/stm32g4xx_hal_pcd.c ****   else
 672:Drivers/STM32G4xx_HAL_Driver/Src/stm32g4xx_hal_pcd.c ****   {
 673:Drivers/STM32G4xx_HAL_Driver/Src/stm32g4xx_hal_pcd.c ****     /* Update the error code */
 674:Drivers/STM32G4xx_HAL_Driver/Src/stm32g4xx_hal_pcd.c ****     hpcd->ErrorCode |= HAL_PCD_ERROR_INVALID_CALLBACK;
 675:Drivers/STM32G4xx_HAL_Driver/Src/stm32g4xx_hal_pcd.c **** 
 676:Drivers/STM32G4xx_HAL_Driver/Src/stm32g4xx_hal_pcd.c ****     /* Return error status */
 677:Drivers/STM32G4xx_HAL_Driver/Src/stm32g4xx_hal_pcd.c ****     status =  HAL_ERROR;
 678:Drivers/STM32G4xx_HAL_Driver/Src/stm32g4xx_hal_pcd.c ****   }
 679:Drivers/STM32G4xx_HAL_Driver/Src/stm32g4xx_hal_pcd.c **** 
 680:Drivers/STM32G4xx_HAL_Driver/Src/stm32g4xx_hal_pcd.c ****   /* Release Lock */
 681:Drivers/STM32G4xx_HAL_Driver/Src/stm32g4xx_hal_pcd.c ****   __HAL_UNLOCK(hpcd);
 682:Drivers/STM32G4xx_HAL_Driver/Src/stm32g4xx_hal_pcd.c **** 
 683:Drivers/STM32G4xx_HAL_Driver/Src/stm32g4xx_hal_pcd.c ****   return status;
 684:Drivers/STM32G4xx_HAL_Driver/Src/stm32g4xx_hal_pcd.c **** }
 685:Drivers/STM32G4xx_HAL_Driver/Src/stm32g4xx_hal_pcd.c **** 
 686:Drivers/STM32G4xx_HAL_Driver/Src/stm32g4xx_hal_pcd.c **** /**
 687:Drivers/STM32G4xx_HAL_Driver/Src/stm32g4xx_hal_pcd.c ****   * @brief  UnRegister the USB PCD Iso OUT incomplete Callback
 688:Drivers/STM32G4xx_HAL_Driver/Src/stm32g4xx_hal_pcd.c ****   *         USB PCD Iso OUT incomplete Callback is redirected to the weak HAL_PCD_ISOOUTIncompleteC
 689:Drivers/STM32G4xx_HAL_Driver/Src/stm32g4xx_hal_pcd.c ****   * @param  hpcd PCD handle
 690:Drivers/STM32G4xx_HAL_Driver/Src/stm32g4xx_hal_pcd.c ****   * @retval HAL status
 691:Drivers/STM32G4xx_HAL_Driver/Src/stm32g4xx_hal_pcd.c ****   */
 692:Drivers/STM32G4xx_HAL_Driver/Src/stm32g4xx_hal_pcd.c **** HAL_StatusTypeDef HAL_PCD_UnRegisterIsoOutIncpltCallback(PCD_HandleTypeDef *hpcd)
 693:Drivers/STM32G4xx_HAL_Driver/Src/stm32g4xx_hal_pcd.c **** {
 694:Drivers/STM32G4xx_HAL_Driver/Src/stm32g4xx_hal_pcd.c ****   HAL_StatusTypeDef status = HAL_OK;
 695:Drivers/STM32G4xx_HAL_Driver/Src/stm32g4xx_hal_pcd.c **** 
 696:Drivers/STM32G4xx_HAL_Driver/Src/stm32g4xx_hal_pcd.c ****   /* Process locked */
 697:Drivers/STM32G4xx_HAL_Driver/Src/stm32g4xx_hal_pcd.c ****   __HAL_LOCK(hpcd);
ARM GAS  /var/folders/17/j_dgbcc52q10y0jc3c_zbwd80000gn/T//cc40SoIA.s 			page 18


 698:Drivers/STM32G4xx_HAL_Driver/Src/stm32g4xx_hal_pcd.c **** 
 699:Drivers/STM32G4xx_HAL_Driver/Src/stm32g4xx_hal_pcd.c ****   if (hpcd->State == HAL_PCD_STATE_READY)
 700:Drivers/STM32G4xx_HAL_Driver/Src/stm32g4xx_hal_pcd.c ****   {
 701:Drivers/STM32G4xx_HAL_Driver/Src/stm32g4xx_hal_pcd.c ****     hpcd->ISOOUTIncompleteCallback = HAL_PCD_ISOOUTIncompleteCallback; /* Legacy weak ISOOUTIncompl
 702:Drivers/STM32G4xx_HAL_Driver/Src/stm32g4xx_hal_pcd.c ****   }
 703:Drivers/STM32G4xx_HAL_Driver/Src/stm32g4xx_hal_pcd.c ****   else
 704:Drivers/STM32G4xx_HAL_Driver/Src/stm32g4xx_hal_pcd.c ****   {
 705:Drivers/STM32G4xx_HAL_Driver/Src/stm32g4xx_hal_pcd.c ****     /* Update the error code */
 706:Drivers/STM32G4xx_HAL_Driver/Src/stm32g4xx_hal_pcd.c ****     hpcd->ErrorCode |= HAL_PCD_ERROR_INVALID_CALLBACK;
 707:Drivers/STM32G4xx_HAL_Driver/Src/stm32g4xx_hal_pcd.c **** 
 708:Drivers/STM32G4xx_HAL_Driver/Src/stm32g4xx_hal_pcd.c ****     /* Return error status */
 709:Drivers/STM32G4xx_HAL_Driver/Src/stm32g4xx_hal_pcd.c ****     status =  HAL_ERROR;
 710:Drivers/STM32G4xx_HAL_Driver/Src/stm32g4xx_hal_pcd.c ****   }
 711:Drivers/STM32G4xx_HAL_Driver/Src/stm32g4xx_hal_pcd.c **** 
 712:Drivers/STM32G4xx_HAL_Driver/Src/stm32g4xx_hal_pcd.c ****   /* Release Lock */
 713:Drivers/STM32G4xx_HAL_Driver/Src/stm32g4xx_hal_pcd.c ****   __HAL_UNLOCK(hpcd);
 714:Drivers/STM32G4xx_HAL_Driver/Src/stm32g4xx_hal_pcd.c **** 
 715:Drivers/STM32G4xx_HAL_Driver/Src/stm32g4xx_hal_pcd.c ****   return status;
 716:Drivers/STM32G4xx_HAL_Driver/Src/stm32g4xx_hal_pcd.c **** }
 717:Drivers/STM32G4xx_HAL_Driver/Src/stm32g4xx_hal_pcd.c **** 
 718:Drivers/STM32G4xx_HAL_Driver/Src/stm32g4xx_hal_pcd.c **** /**
 719:Drivers/STM32G4xx_HAL_Driver/Src/stm32g4xx_hal_pcd.c ****   * @brief  Register USB PCD Iso IN incomplete Callback
 720:Drivers/STM32G4xx_HAL_Driver/Src/stm32g4xx_hal_pcd.c ****   *         To be used instead of the weak HAL_PCD_ISOINIncompleteCallback() predefined callback
 721:Drivers/STM32G4xx_HAL_Driver/Src/stm32g4xx_hal_pcd.c ****   * @param  hpcd PCD handle
 722:Drivers/STM32G4xx_HAL_Driver/Src/stm32g4xx_hal_pcd.c ****   * @param  pCallback pointer to the USB PCD Iso IN incomplete Callback function
 723:Drivers/STM32G4xx_HAL_Driver/Src/stm32g4xx_hal_pcd.c ****   * @retval HAL status
 724:Drivers/STM32G4xx_HAL_Driver/Src/stm32g4xx_hal_pcd.c ****   */
 725:Drivers/STM32G4xx_HAL_Driver/Src/stm32g4xx_hal_pcd.c **** HAL_StatusTypeDef HAL_PCD_RegisterIsoInIncpltCallback(PCD_HandleTypeDef *hpcd, pPCD_IsoInIncpltCall
 726:Drivers/STM32G4xx_HAL_Driver/Src/stm32g4xx_hal_pcd.c **** {
 727:Drivers/STM32G4xx_HAL_Driver/Src/stm32g4xx_hal_pcd.c ****   HAL_StatusTypeDef status = HAL_OK;
 728:Drivers/STM32G4xx_HAL_Driver/Src/stm32g4xx_hal_pcd.c **** 
 729:Drivers/STM32G4xx_HAL_Driver/Src/stm32g4xx_hal_pcd.c ****   if (pCallback == NULL)
 730:Drivers/STM32G4xx_HAL_Driver/Src/stm32g4xx_hal_pcd.c ****   {
 731:Drivers/STM32G4xx_HAL_Driver/Src/stm32g4xx_hal_pcd.c ****     /* Update the error code */
 732:Drivers/STM32G4xx_HAL_Driver/Src/stm32g4xx_hal_pcd.c ****     hpcd->ErrorCode |= HAL_PCD_ERROR_INVALID_CALLBACK;
 733:Drivers/STM32G4xx_HAL_Driver/Src/stm32g4xx_hal_pcd.c **** 
 734:Drivers/STM32G4xx_HAL_Driver/Src/stm32g4xx_hal_pcd.c ****     return HAL_ERROR;
 735:Drivers/STM32G4xx_HAL_Driver/Src/stm32g4xx_hal_pcd.c ****   }
 736:Drivers/STM32G4xx_HAL_Driver/Src/stm32g4xx_hal_pcd.c **** 
 737:Drivers/STM32G4xx_HAL_Driver/Src/stm32g4xx_hal_pcd.c ****   /* Process locked */
 738:Drivers/STM32G4xx_HAL_Driver/Src/stm32g4xx_hal_pcd.c ****   __HAL_LOCK(hpcd);
 739:Drivers/STM32G4xx_HAL_Driver/Src/stm32g4xx_hal_pcd.c **** 
 740:Drivers/STM32G4xx_HAL_Driver/Src/stm32g4xx_hal_pcd.c ****   if (hpcd->State == HAL_PCD_STATE_READY)
 741:Drivers/STM32G4xx_HAL_Driver/Src/stm32g4xx_hal_pcd.c ****   {
 742:Drivers/STM32G4xx_HAL_Driver/Src/stm32g4xx_hal_pcd.c ****     hpcd->ISOINIncompleteCallback = pCallback;
 743:Drivers/STM32G4xx_HAL_Driver/Src/stm32g4xx_hal_pcd.c ****   }
 744:Drivers/STM32G4xx_HAL_Driver/Src/stm32g4xx_hal_pcd.c ****   else
 745:Drivers/STM32G4xx_HAL_Driver/Src/stm32g4xx_hal_pcd.c ****   {
 746:Drivers/STM32G4xx_HAL_Driver/Src/stm32g4xx_hal_pcd.c ****     /* Update the error code */
 747:Drivers/STM32G4xx_HAL_Driver/Src/stm32g4xx_hal_pcd.c ****     hpcd->ErrorCode |= HAL_PCD_ERROR_INVALID_CALLBACK;
 748:Drivers/STM32G4xx_HAL_Driver/Src/stm32g4xx_hal_pcd.c **** 
 749:Drivers/STM32G4xx_HAL_Driver/Src/stm32g4xx_hal_pcd.c ****     /* Return error status */
 750:Drivers/STM32G4xx_HAL_Driver/Src/stm32g4xx_hal_pcd.c ****     status =  HAL_ERROR;
 751:Drivers/STM32G4xx_HAL_Driver/Src/stm32g4xx_hal_pcd.c ****   }
 752:Drivers/STM32G4xx_HAL_Driver/Src/stm32g4xx_hal_pcd.c **** 
 753:Drivers/STM32G4xx_HAL_Driver/Src/stm32g4xx_hal_pcd.c ****   /* Release Lock */
 754:Drivers/STM32G4xx_HAL_Driver/Src/stm32g4xx_hal_pcd.c ****   __HAL_UNLOCK(hpcd);
ARM GAS  /var/folders/17/j_dgbcc52q10y0jc3c_zbwd80000gn/T//cc40SoIA.s 			page 19


 755:Drivers/STM32G4xx_HAL_Driver/Src/stm32g4xx_hal_pcd.c **** 
 756:Drivers/STM32G4xx_HAL_Driver/Src/stm32g4xx_hal_pcd.c ****   return status;
 757:Drivers/STM32G4xx_HAL_Driver/Src/stm32g4xx_hal_pcd.c **** }
 758:Drivers/STM32G4xx_HAL_Driver/Src/stm32g4xx_hal_pcd.c **** 
 759:Drivers/STM32G4xx_HAL_Driver/Src/stm32g4xx_hal_pcd.c **** /**
 760:Drivers/STM32G4xx_HAL_Driver/Src/stm32g4xx_hal_pcd.c ****   * @brief  UnRegister the USB PCD Iso IN incomplete Callback
 761:Drivers/STM32G4xx_HAL_Driver/Src/stm32g4xx_hal_pcd.c ****   *         USB PCD Iso IN incomplete Callback is redirected to the weak HAL_PCD_ISOINIncompleteCal
 762:Drivers/STM32G4xx_HAL_Driver/Src/stm32g4xx_hal_pcd.c ****   * @param  hpcd PCD handle
 763:Drivers/STM32G4xx_HAL_Driver/Src/stm32g4xx_hal_pcd.c ****   * @retval HAL status
 764:Drivers/STM32G4xx_HAL_Driver/Src/stm32g4xx_hal_pcd.c ****   */
 765:Drivers/STM32G4xx_HAL_Driver/Src/stm32g4xx_hal_pcd.c **** HAL_StatusTypeDef HAL_PCD_UnRegisterIsoInIncpltCallback(PCD_HandleTypeDef *hpcd)
 766:Drivers/STM32G4xx_HAL_Driver/Src/stm32g4xx_hal_pcd.c **** {
 767:Drivers/STM32G4xx_HAL_Driver/Src/stm32g4xx_hal_pcd.c ****   HAL_StatusTypeDef status = HAL_OK;
 768:Drivers/STM32G4xx_HAL_Driver/Src/stm32g4xx_hal_pcd.c **** 
 769:Drivers/STM32G4xx_HAL_Driver/Src/stm32g4xx_hal_pcd.c ****   /* Process locked */
 770:Drivers/STM32G4xx_HAL_Driver/Src/stm32g4xx_hal_pcd.c ****   __HAL_LOCK(hpcd);
 771:Drivers/STM32G4xx_HAL_Driver/Src/stm32g4xx_hal_pcd.c **** 
 772:Drivers/STM32G4xx_HAL_Driver/Src/stm32g4xx_hal_pcd.c ****   if (hpcd->State == HAL_PCD_STATE_READY)
 773:Drivers/STM32G4xx_HAL_Driver/Src/stm32g4xx_hal_pcd.c ****   {
 774:Drivers/STM32G4xx_HAL_Driver/Src/stm32g4xx_hal_pcd.c ****     hpcd->ISOINIncompleteCallback = HAL_PCD_ISOINIncompleteCallback; /* Legacy weak ISOINIncomplete
 775:Drivers/STM32G4xx_HAL_Driver/Src/stm32g4xx_hal_pcd.c ****   }
 776:Drivers/STM32G4xx_HAL_Driver/Src/stm32g4xx_hal_pcd.c ****   else
 777:Drivers/STM32G4xx_HAL_Driver/Src/stm32g4xx_hal_pcd.c ****   {
 778:Drivers/STM32G4xx_HAL_Driver/Src/stm32g4xx_hal_pcd.c ****     /* Update the error code */
 779:Drivers/STM32G4xx_HAL_Driver/Src/stm32g4xx_hal_pcd.c ****     hpcd->ErrorCode |= HAL_PCD_ERROR_INVALID_CALLBACK;
 780:Drivers/STM32G4xx_HAL_Driver/Src/stm32g4xx_hal_pcd.c **** 
 781:Drivers/STM32G4xx_HAL_Driver/Src/stm32g4xx_hal_pcd.c ****     /* Return error status */
 782:Drivers/STM32G4xx_HAL_Driver/Src/stm32g4xx_hal_pcd.c ****     status =  HAL_ERROR;
 783:Drivers/STM32G4xx_HAL_Driver/Src/stm32g4xx_hal_pcd.c ****   }
 784:Drivers/STM32G4xx_HAL_Driver/Src/stm32g4xx_hal_pcd.c **** 
 785:Drivers/STM32G4xx_HAL_Driver/Src/stm32g4xx_hal_pcd.c ****   /* Release Lock */
 786:Drivers/STM32G4xx_HAL_Driver/Src/stm32g4xx_hal_pcd.c ****   __HAL_UNLOCK(hpcd);
 787:Drivers/STM32G4xx_HAL_Driver/Src/stm32g4xx_hal_pcd.c **** 
 788:Drivers/STM32G4xx_HAL_Driver/Src/stm32g4xx_hal_pcd.c ****   return status;
 789:Drivers/STM32G4xx_HAL_Driver/Src/stm32g4xx_hal_pcd.c **** }
 790:Drivers/STM32G4xx_HAL_Driver/Src/stm32g4xx_hal_pcd.c **** 
 791:Drivers/STM32G4xx_HAL_Driver/Src/stm32g4xx_hal_pcd.c **** /**
 792:Drivers/STM32G4xx_HAL_Driver/Src/stm32g4xx_hal_pcd.c ****   * @brief  Register USB PCD BCD Callback
 793:Drivers/STM32G4xx_HAL_Driver/Src/stm32g4xx_hal_pcd.c ****   *         To be used instead of the weak HAL_PCDEx_BCD_Callback() predefined callback
 794:Drivers/STM32G4xx_HAL_Driver/Src/stm32g4xx_hal_pcd.c ****   * @param  hpcd PCD handle
 795:Drivers/STM32G4xx_HAL_Driver/Src/stm32g4xx_hal_pcd.c ****   * @param  pCallback pointer to the USB PCD BCD Callback function
 796:Drivers/STM32G4xx_HAL_Driver/Src/stm32g4xx_hal_pcd.c ****   * @retval HAL status
 797:Drivers/STM32G4xx_HAL_Driver/Src/stm32g4xx_hal_pcd.c ****   */
 798:Drivers/STM32G4xx_HAL_Driver/Src/stm32g4xx_hal_pcd.c **** HAL_StatusTypeDef HAL_PCD_RegisterBcdCallback(PCD_HandleTypeDef *hpcd, pPCD_BcdCallbackTypeDef pCal
 799:Drivers/STM32G4xx_HAL_Driver/Src/stm32g4xx_hal_pcd.c **** {
 800:Drivers/STM32G4xx_HAL_Driver/Src/stm32g4xx_hal_pcd.c ****   HAL_StatusTypeDef status = HAL_OK;
 801:Drivers/STM32G4xx_HAL_Driver/Src/stm32g4xx_hal_pcd.c **** 
 802:Drivers/STM32G4xx_HAL_Driver/Src/stm32g4xx_hal_pcd.c ****   if (pCallback == NULL)
 803:Drivers/STM32G4xx_HAL_Driver/Src/stm32g4xx_hal_pcd.c ****   {
 804:Drivers/STM32G4xx_HAL_Driver/Src/stm32g4xx_hal_pcd.c ****     /* Update the error code */
 805:Drivers/STM32G4xx_HAL_Driver/Src/stm32g4xx_hal_pcd.c ****     hpcd->ErrorCode |= HAL_PCD_ERROR_INVALID_CALLBACK;
 806:Drivers/STM32G4xx_HAL_Driver/Src/stm32g4xx_hal_pcd.c **** 
 807:Drivers/STM32G4xx_HAL_Driver/Src/stm32g4xx_hal_pcd.c ****     return HAL_ERROR;
 808:Drivers/STM32G4xx_HAL_Driver/Src/stm32g4xx_hal_pcd.c ****   }
 809:Drivers/STM32G4xx_HAL_Driver/Src/stm32g4xx_hal_pcd.c **** 
 810:Drivers/STM32G4xx_HAL_Driver/Src/stm32g4xx_hal_pcd.c ****   /* Process locked */
 811:Drivers/STM32G4xx_HAL_Driver/Src/stm32g4xx_hal_pcd.c ****   __HAL_LOCK(hpcd);
ARM GAS  /var/folders/17/j_dgbcc52q10y0jc3c_zbwd80000gn/T//cc40SoIA.s 			page 20


 812:Drivers/STM32G4xx_HAL_Driver/Src/stm32g4xx_hal_pcd.c **** 
 813:Drivers/STM32G4xx_HAL_Driver/Src/stm32g4xx_hal_pcd.c ****   if (hpcd->State == HAL_PCD_STATE_READY)
 814:Drivers/STM32G4xx_HAL_Driver/Src/stm32g4xx_hal_pcd.c ****   {
 815:Drivers/STM32G4xx_HAL_Driver/Src/stm32g4xx_hal_pcd.c ****     hpcd->BCDCallback = pCallback;
 816:Drivers/STM32G4xx_HAL_Driver/Src/stm32g4xx_hal_pcd.c ****   }
 817:Drivers/STM32G4xx_HAL_Driver/Src/stm32g4xx_hal_pcd.c ****   else
 818:Drivers/STM32G4xx_HAL_Driver/Src/stm32g4xx_hal_pcd.c ****   {
 819:Drivers/STM32G4xx_HAL_Driver/Src/stm32g4xx_hal_pcd.c ****     /* Update the error code */
 820:Drivers/STM32G4xx_HAL_Driver/Src/stm32g4xx_hal_pcd.c ****     hpcd->ErrorCode |= HAL_PCD_ERROR_INVALID_CALLBACK;
 821:Drivers/STM32G4xx_HAL_Driver/Src/stm32g4xx_hal_pcd.c **** 
 822:Drivers/STM32G4xx_HAL_Driver/Src/stm32g4xx_hal_pcd.c ****     /* Return error status */
 823:Drivers/STM32G4xx_HAL_Driver/Src/stm32g4xx_hal_pcd.c ****     status =  HAL_ERROR;
 824:Drivers/STM32G4xx_HAL_Driver/Src/stm32g4xx_hal_pcd.c ****   }
 825:Drivers/STM32G4xx_HAL_Driver/Src/stm32g4xx_hal_pcd.c **** 
 826:Drivers/STM32G4xx_HAL_Driver/Src/stm32g4xx_hal_pcd.c ****   /* Release Lock */
 827:Drivers/STM32G4xx_HAL_Driver/Src/stm32g4xx_hal_pcd.c ****   __HAL_UNLOCK(hpcd);
 828:Drivers/STM32G4xx_HAL_Driver/Src/stm32g4xx_hal_pcd.c **** 
 829:Drivers/STM32G4xx_HAL_Driver/Src/stm32g4xx_hal_pcd.c ****   return status;
 830:Drivers/STM32G4xx_HAL_Driver/Src/stm32g4xx_hal_pcd.c **** }
 831:Drivers/STM32G4xx_HAL_Driver/Src/stm32g4xx_hal_pcd.c **** 
 832:Drivers/STM32G4xx_HAL_Driver/Src/stm32g4xx_hal_pcd.c **** /**
 833:Drivers/STM32G4xx_HAL_Driver/Src/stm32g4xx_hal_pcd.c ****   * @brief  UnRegister the USB PCD BCD Callback
 834:Drivers/STM32G4xx_HAL_Driver/Src/stm32g4xx_hal_pcd.c ****   *         USB BCD Callback is redirected to the weak HAL_PCDEx_BCD_Callback() predefined callback
 835:Drivers/STM32G4xx_HAL_Driver/Src/stm32g4xx_hal_pcd.c ****   * @param  hpcd PCD handle
 836:Drivers/STM32G4xx_HAL_Driver/Src/stm32g4xx_hal_pcd.c ****   * @retval HAL status
 837:Drivers/STM32G4xx_HAL_Driver/Src/stm32g4xx_hal_pcd.c ****   */
 838:Drivers/STM32G4xx_HAL_Driver/Src/stm32g4xx_hal_pcd.c **** HAL_StatusTypeDef HAL_PCD_UnRegisterBcdCallback(PCD_HandleTypeDef *hpcd)
 839:Drivers/STM32G4xx_HAL_Driver/Src/stm32g4xx_hal_pcd.c **** {
 840:Drivers/STM32G4xx_HAL_Driver/Src/stm32g4xx_hal_pcd.c ****   HAL_StatusTypeDef status = HAL_OK;
 841:Drivers/STM32G4xx_HAL_Driver/Src/stm32g4xx_hal_pcd.c **** 
 842:Drivers/STM32G4xx_HAL_Driver/Src/stm32g4xx_hal_pcd.c ****   /* Process locked */
 843:Drivers/STM32G4xx_HAL_Driver/Src/stm32g4xx_hal_pcd.c ****   __HAL_LOCK(hpcd);
 844:Drivers/STM32G4xx_HAL_Driver/Src/stm32g4xx_hal_pcd.c **** 
 845:Drivers/STM32G4xx_HAL_Driver/Src/stm32g4xx_hal_pcd.c ****   if (hpcd->State == HAL_PCD_STATE_READY)
 846:Drivers/STM32G4xx_HAL_Driver/Src/stm32g4xx_hal_pcd.c ****   {
 847:Drivers/STM32G4xx_HAL_Driver/Src/stm32g4xx_hal_pcd.c ****     hpcd->BCDCallback = HAL_PCDEx_BCD_Callback; /* Legacy weak HAL_PCDEx_BCD_Callback  */
 848:Drivers/STM32G4xx_HAL_Driver/Src/stm32g4xx_hal_pcd.c ****   }
 849:Drivers/STM32G4xx_HAL_Driver/Src/stm32g4xx_hal_pcd.c ****   else
 850:Drivers/STM32G4xx_HAL_Driver/Src/stm32g4xx_hal_pcd.c ****   {
 851:Drivers/STM32G4xx_HAL_Driver/Src/stm32g4xx_hal_pcd.c ****     /* Update the error code */
 852:Drivers/STM32G4xx_HAL_Driver/Src/stm32g4xx_hal_pcd.c ****     hpcd->ErrorCode |= HAL_PCD_ERROR_INVALID_CALLBACK;
 853:Drivers/STM32G4xx_HAL_Driver/Src/stm32g4xx_hal_pcd.c **** 
 854:Drivers/STM32G4xx_HAL_Driver/Src/stm32g4xx_hal_pcd.c ****     /* Return error status */
 855:Drivers/STM32G4xx_HAL_Driver/Src/stm32g4xx_hal_pcd.c ****     status =  HAL_ERROR;
 856:Drivers/STM32G4xx_HAL_Driver/Src/stm32g4xx_hal_pcd.c ****   }
 857:Drivers/STM32G4xx_HAL_Driver/Src/stm32g4xx_hal_pcd.c **** 
 858:Drivers/STM32G4xx_HAL_Driver/Src/stm32g4xx_hal_pcd.c ****   /* Release Lock */
 859:Drivers/STM32G4xx_HAL_Driver/Src/stm32g4xx_hal_pcd.c ****   __HAL_UNLOCK(hpcd);
 860:Drivers/STM32G4xx_HAL_Driver/Src/stm32g4xx_hal_pcd.c **** 
 861:Drivers/STM32G4xx_HAL_Driver/Src/stm32g4xx_hal_pcd.c ****   return status;
 862:Drivers/STM32G4xx_HAL_Driver/Src/stm32g4xx_hal_pcd.c **** }
 863:Drivers/STM32G4xx_HAL_Driver/Src/stm32g4xx_hal_pcd.c **** 
 864:Drivers/STM32G4xx_HAL_Driver/Src/stm32g4xx_hal_pcd.c **** /**
 865:Drivers/STM32G4xx_HAL_Driver/Src/stm32g4xx_hal_pcd.c ****   * @brief  Register USB PCD LPM Callback
 866:Drivers/STM32G4xx_HAL_Driver/Src/stm32g4xx_hal_pcd.c ****   *         To be used instead of the weak HAL_PCDEx_LPM_Callback() predefined callback
 867:Drivers/STM32G4xx_HAL_Driver/Src/stm32g4xx_hal_pcd.c ****   * @param  hpcd PCD handle
 868:Drivers/STM32G4xx_HAL_Driver/Src/stm32g4xx_hal_pcd.c ****   * @param  pCallback pointer to the USB PCD LPM Callback function
ARM GAS  /var/folders/17/j_dgbcc52q10y0jc3c_zbwd80000gn/T//cc40SoIA.s 			page 21


 869:Drivers/STM32G4xx_HAL_Driver/Src/stm32g4xx_hal_pcd.c ****   * @retval HAL status
 870:Drivers/STM32G4xx_HAL_Driver/Src/stm32g4xx_hal_pcd.c ****   */
 871:Drivers/STM32G4xx_HAL_Driver/Src/stm32g4xx_hal_pcd.c **** HAL_StatusTypeDef HAL_PCD_RegisterLpmCallback(PCD_HandleTypeDef *hpcd, pPCD_LpmCallbackTypeDef pCal
 872:Drivers/STM32G4xx_HAL_Driver/Src/stm32g4xx_hal_pcd.c **** {
 873:Drivers/STM32G4xx_HAL_Driver/Src/stm32g4xx_hal_pcd.c ****   HAL_StatusTypeDef status = HAL_OK;
 874:Drivers/STM32G4xx_HAL_Driver/Src/stm32g4xx_hal_pcd.c **** 
 875:Drivers/STM32G4xx_HAL_Driver/Src/stm32g4xx_hal_pcd.c ****   if (pCallback == NULL)
 876:Drivers/STM32G4xx_HAL_Driver/Src/stm32g4xx_hal_pcd.c ****   {
 877:Drivers/STM32G4xx_HAL_Driver/Src/stm32g4xx_hal_pcd.c ****     /* Update the error code */
 878:Drivers/STM32G4xx_HAL_Driver/Src/stm32g4xx_hal_pcd.c ****     hpcd->ErrorCode |= HAL_PCD_ERROR_INVALID_CALLBACK;
 879:Drivers/STM32G4xx_HAL_Driver/Src/stm32g4xx_hal_pcd.c **** 
 880:Drivers/STM32G4xx_HAL_Driver/Src/stm32g4xx_hal_pcd.c ****     return HAL_ERROR;
 881:Drivers/STM32G4xx_HAL_Driver/Src/stm32g4xx_hal_pcd.c ****   }
 882:Drivers/STM32G4xx_HAL_Driver/Src/stm32g4xx_hal_pcd.c **** 
 883:Drivers/STM32G4xx_HAL_Driver/Src/stm32g4xx_hal_pcd.c ****   /* Process locked */
 884:Drivers/STM32G4xx_HAL_Driver/Src/stm32g4xx_hal_pcd.c ****   __HAL_LOCK(hpcd);
 885:Drivers/STM32G4xx_HAL_Driver/Src/stm32g4xx_hal_pcd.c **** 
 886:Drivers/STM32G4xx_HAL_Driver/Src/stm32g4xx_hal_pcd.c ****   if (hpcd->State == HAL_PCD_STATE_READY)
 887:Drivers/STM32G4xx_HAL_Driver/Src/stm32g4xx_hal_pcd.c ****   {
 888:Drivers/STM32G4xx_HAL_Driver/Src/stm32g4xx_hal_pcd.c ****     hpcd->LPMCallback = pCallback;
 889:Drivers/STM32G4xx_HAL_Driver/Src/stm32g4xx_hal_pcd.c ****   }
 890:Drivers/STM32G4xx_HAL_Driver/Src/stm32g4xx_hal_pcd.c ****   else
 891:Drivers/STM32G4xx_HAL_Driver/Src/stm32g4xx_hal_pcd.c ****   {
 892:Drivers/STM32G4xx_HAL_Driver/Src/stm32g4xx_hal_pcd.c ****     /* Update the error code */
 893:Drivers/STM32G4xx_HAL_Driver/Src/stm32g4xx_hal_pcd.c ****     hpcd->ErrorCode |= HAL_PCD_ERROR_INVALID_CALLBACK;
 894:Drivers/STM32G4xx_HAL_Driver/Src/stm32g4xx_hal_pcd.c **** 
 895:Drivers/STM32G4xx_HAL_Driver/Src/stm32g4xx_hal_pcd.c ****     /* Return error status */
 896:Drivers/STM32G4xx_HAL_Driver/Src/stm32g4xx_hal_pcd.c ****     status =  HAL_ERROR;
 897:Drivers/STM32G4xx_HAL_Driver/Src/stm32g4xx_hal_pcd.c ****   }
 898:Drivers/STM32G4xx_HAL_Driver/Src/stm32g4xx_hal_pcd.c **** 
 899:Drivers/STM32G4xx_HAL_Driver/Src/stm32g4xx_hal_pcd.c ****   /* Release Lock */
 900:Drivers/STM32G4xx_HAL_Driver/Src/stm32g4xx_hal_pcd.c ****   __HAL_UNLOCK(hpcd);
 901:Drivers/STM32G4xx_HAL_Driver/Src/stm32g4xx_hal_pcd.c **** 
 902:Drivers/STM32G4xx_HAL_Driver/Src/stm32g4xx_hal_pcd.c ****   return status;
 903:Drivers/STM32G4xx_HAL_Driver/Src/stm32g4xx_hal_pcd.c **** }
 904:Drivers/STM32G4xx_HAL_Driver/Src/stm32g4xx_hal_pcd.c **** 
 905:Drivers/STM32G4xx_HAL_Driver/Src/stm32g4xx_hal_pcd.c **** /**
 906:Drivers/STM32G4xx_HAL_Driver/Src/stm32g4xx_hal_pcd.c ****   * @brief  UnRegister the USB PCD LPM Callback
 907:Drivers/STM32G4xx_HAL_Driver/Src/stm32g4xx_hal_pcd.c ****   *         USB LPM Callback is redirected to the weak HAL_PCDEx_LPM_Callback() predefined callback
 908:Drivers/STM32G4xx_HAL_Driver/Src/stm32g4xx_hal_pcd.c ****   * @param  hpcd PCD handle
 909:Drivers/STM32G4xx_HAL_Driver/Src/stm32g4xx_hal_pcd.c ****   * @retval HAL status
 910:Drivers/STM32G4xx_HAL_Driver/Src/stm32g4xx_hal_pcd.c ****   */
 911:Drivers/STM32G4xx_HAL_Driver/Src/stm32g4xx_hal_pcd.c **** HAL_StatusTypeDef HAL_PCD_UnRegisterLpmCallback(PCD_HandleTypeDef *hpcd)
 912:Drivers/STM32G4xx_HAL_Driver/Src/stm32g4xx_hal_pcd.c **** {
 913:Drivers/STM32G4xx_HAL_Driver/Src/stm32g4xx_hal_pcd.c ****   HAL_StatusTypeDef status = HAL_OK;
 914:Drivers/STM32G4xx_HAL_Driver/Src/stm32g4xx_hal_pcd.c **** 
 915:Drivers/STM32G4xx_HAL_Driver/Src/stm32g4xx_hal_pcd.c ****   /* Process locked */
 916:Drivers/STM32G4xx_HAL_Driver/Src/stm32g4xx_hal_pcd.c ****   __HAL_LOCK(hpcd);
 917:Drivers/STM32G4xx_HAL_Driver/Src/stm32g4xx_hal_pcd.c **** 
 918:Drivers/STM32G4xx_HAL_Driver/Src/stm32g4xx_hal_pcd.c ****   if (hpcd->State == HAL_PCD_STATE_READY)
 919:Drivers/STM32G4xx_HAL_Driver/Src/stm32g4xx_hal_pcd.c ****   {
 920:Drivers/STM32G4xx_HAL_Driver/Src/stm32g4xx_hal_pcd.c ****     hpcd->LPMCallback = HAL_PCDEx_LPM_Callback; /* Legacy weak HAL_PCDEx_LPM_Callback  */
 921:Drivers/STM32G4xx_HAL_Driver/Src/stm32g4xx_hal_pcd.c ****   }
 922:Drivers/STM32G4xx_HAL_Driver/Src/stm32g4xx_hal_pcd.c ****   else
 923:Drivers/STM32G4xx_HAL_Driver/Src/stm32g4xx_hal_pcd.c ****   {
 924:Drivers/STM32G4xx_HAL_Driver/Src/stm32g4xx_hal_pcd.c ****     /* Update the error code */
 925:Drivers/STM32G4xx_HAL_Driver/Src/stm32g4xx_hal_pcd.c ****     hpcd->ErrorCode |= HAL_PCD_ERROR_INVALID_CALLBACK;
ARM GAS  /var/folders/17/j_dgbcc52q10y0jc3c_zbwd80000gn/T//cc40SoIA.s 			page 22


 926:Drivers/STM32G4xx_HAL_Driver/Src/stm32g4xx_hal_pcd.c **** 
 927:Drivers/STM32G4xx_HAL_Driver/Src/stm32g4xx_hal_pcd.c ****     /* Return error status */
 928:Drivers/STM32G4xx_HAL_Driver/Src/stm32g4xx_hal_pcd.c ****     status =  HAL_ERROR;
 929:Drivers/STM32G4xx_HAL_Driver/Src/stm32g4xx_hal_pcd.c ****   }
 930:Drivers/STM32G4xx_HAL_Driver/Src/stm32g4xx_hal_pcd.c **** 
 931:Drivers/STM32G4xx_HAL_Driver/Src/stm32g4xx_hal_pcd.c ****   /* Release Lock */
 932:Drivers/STM32G4xx_HAL_Driver/Src/stm32g4xx_hal_pcd.c ****   __HAL_UNLOCK(hpcd);
 933:Drivers/STM32G4xx_HAL_Driver/Src/stm32g4xx_hal_pcd.c **** 
 934:Drivers/STM32G4xx_HAL_Driver/Src/stm32g4xx_hal_pcd.c ****   return status;
 935:Drivers/STM32G4xx_HAL_Driver/Src/stm32g4xx_hal_pcd.c **** }
 936:Drivers/STM32G4xx_HAL_Driver/Src/stm32g4xx_hal_pcd.c **** #endif /* USE_HAL_PCD_REGISTER_CALLBACKS */
 937:Drivers/STM32G4xx_HAL_Driver/Src/stm32g4xx_hal_pcd.c **** 
 938:Drivers/STM32G4xx_HAL_Driver/Src/stm32g4xx_hal_pcd.c **** /**
 939:Drivers/STM32G4xx_HAL_Driver/Src/stm32g4xx_hal_pcd.c ****   * @}
 940:Drivers/STM32G4xx_HAL_Driver/Src/stm32g4xx_hal_pcd.c ****   */
 941:Drivers/STM32G4xx_HAL_Driver/Src/stm32g4xx_hal_pcd.c **** 
 942:Drivers/STM32G4xx_HAL_Driver/Src/stm32g4xx_hal_pcd.c **** /** @defgroup PCD_Exported_Functions_Group2 Input and Output operation functions
 943:Drivers/STM32G4xx_HAL_Driver/Src/stm32g4xx_hal_pcd.c ****  *  @brief   Data transfers functions
 944:Drivers/STM32G4xx_HAL_Driver/Src/stm32g4xx_hal_pcd.c ****  *
 945:Drivers/STM32G4xx_HAL_Driver/Src/stm32g4xx_hal_pcd.c **** @verbatim
 946:Drivers/STM32G4xx_HAL_Driver/Src/stm32g4xx_hal_pcd.c ****  ===============================================================================
 947:Drivers/STM32G4xx_HAL_Driver/Src/stm32g4xx_hal_pcd.c ****                       ##### IO operation functions #####
 948:Drivers/STM32G4xx_HAL_Driver/Src/stm32g4xx_hal_pcd.c ****  ===============================================================================
 949:Drivers/STM32G4xx_HAL_Driver/Src/stm32g4xx_hal_pcd.c ****     [..]
 950:Drivers/STM32G4xx_HAL_Driver/Src/stm32g4xx_hal_pcd.c ****     This subsection provides a set of functions allowing to manage the PCD data
 951:Drivers/STM32G4xx_HAL_Driver/Src/stm32g4xx_hal_pcd.c ****     transfers.
 952:Drivers/STM32G4xx_HAL_Driver/Src/stm32g4xx_hal_pcd.c **** 
 953:Drivers/STM32G4xx_HAL_Driver/Src/stm32g4xx_hal_pcd.c **** @endverbatim
 954:Drivers/STM32G4xx_HAL_Driver/Src/stm32g4xx_hal_pcd.c ****   * @{
 955:Drivers/STM32G4xx_HAL_Driver/Src/stm32g4xx_hal_pcd.c ****   */
 956:Drivers/STM32G4xx_HAL_Driver/Src/stm32g4xx_hal_pcd.c **** 
 957:Drivers/STM32G4xx_HAL_Driver/Src/stm32g4xx_hal_pcd.c **** /**
 958:Drivers/STM32G4xx_HAL_Driver/Src/stm32g4xx_hal_pcd.c ****   * @brief  Start the USB device
 959:Drivers/STM32G4xx_HAL_Driver/Src/stm32g4xx_hal_pcd.c ****   * @param  hpcd PCD handle
 960:Drivers/STM32G4xx_HAL_Driver/Src/stm32g4xx_hal_pcd.c ****   * @retval HAL status
 961:Drivers/STM32G4xx_HAL_Driver/Src/stm32g4xx_hal_pcd.c ****   */
 962:Drivers/STM32G4xx_HAL_Driver/Src/stm32g4xx_hal_pcd.c **** HAL_StatusTypeDef HAL_PCD_Start(PCD_HandleTypeDef *hpcd)
 963:Drivers/STM32G4xx_HAL_Driver/Src/stm32g4xx_hal_pcd.c **** {
 243              		.loc 1 963 0
 244              		.cfi_startproc
 245              		@ args = 0, pretend = 0, frame = 0
 246              		@ frame_needed = 0, uses_anonymous_args = 0
 247              	.LVL20:
 964:Drivers/STM32G4xx_HAL_Driver/Src/stm32g4xx_hal_pcd.c ****   __HAL_LOCK(hpcd);
 248              		.loc 1 964 0
 249 0000 90F82832 		ldrb	r3, [r0, #552]	@ zero_extendqisi2
 250 0004 012B     		cmp	r3, #1
 251 0006 0ED0     		beq	.L20
 963:Drivers/STM32G4xx_HAL_Driver/Src/stm32g4xx_hal_pcd.c ****   __HAL_LOCK(hpcd);
 252              		.loc 1 963 0 discriminator 2
 253 0008 10B5     		push	{r4, lr}
 254              		.cfi_def_cfa_offset 8
 255              		.cfi_offset 4, -8
 256              		.cfi_offset 14, -4
 257 000a 0446     		mov	r4, r0
 258              		.loc 1 964 0 discriminator 2
 259 000c 0123     		movs	r3, #1
ARM GAS  /var/folders/17/j_dgbcc52q10y0jc3c_zbwd80000gn/T//cc40SoIA.s 			page 23


 260 000e 80F82832 		strb	r3, [r0, #552]
 965:Drivers/STM32G4xx_HAL_Driver/Src/stm32g4xx_hal_pcd.c ****   (void)USB_DevConnect(hpcd->Instance);
 261              		.loc 1 965 0 discriminator 2
 262 0012 0068     		ldr	r0, [r0]
 263              	.LVL21:
 264 0014 FFF7FEFF 		bl	USB_DevConnect
 265              	.LVL22:
 966:Drivers/STM32G4xx_HAL_Driver/Src/stm32g4xx_hal_pcd.c ****   __HAL_PCD_ENABLE(hpcd);
 266              		.loc 1 966 0 discriminator 2
 267 0018 2068     		ldr	r0, [r4]
 268 001a FFF7FEFF 		bl	USB_EnableGlobalInt
 269              	.LVL23:
 967:Drivers/STM32G4xx_HAL_Driver/Src/stm32g4xx_hal_pcd.c ****   __HAL_UNLOCK(hpcd);
 270              		.loc 1 967 0 discriminator 2
 271 001e 0020     		movs	r0, #0
 272 0020 84F82802 		strb	r0, [r4, #552]
 968:Drivers/STM32G4xx_HAL_Driver/Src/stm32g4xx_hal_pcd.c ****   return HAL_OK;
 969:Drivers/STM32G4xx_HAL_Driver/Src/stm32g4xx_hal_pcd.c **** }
 273              		.loc 1 969 0 discriminator 2
 274 0024 10BD     		pop	{r4, pc}
 275              	.LVL24:
 276              	.L20:
 277              		.cfi_def_cfa_offset 0
 278              		.cfi_restore 4
 279              		.cfi_restore 14
 964:Drivers/STM32G4xx_HAL_Driver/Src/stm32g4xx_hal_pcd.c ****   (void)USB_DevConnect(hpcd->Instance);
 280              		.loc 1 964 0
 281 0026 0220     		movs	r0, #2
 282              	.LVL25:
 283              		.loc 1 969 0
 284 0028 7047     		bx	lr
 285              		.cfi_endproc
 286              	.LFE134:
 288              		.section	.text.HAL_PCD_Stop,"ax",%progbits
 289              		.align	1
 290              		.global	HAL_PCD_Stop
 291              		.syntax unified
 292              		.thumb
 293              		.thumb_func
 294              		.fpu fpv5-sp-d16
 296              	HAL_PCD_Stop:
 297              	.LFB135:
 970:Drivers/STM32G4xx_HAL_Driver/Src/stm32g4xx_hal_pcd.c **** 
 971:Drivers/STM32G4xx_HAL_Driver/Src/stm32g4xx_hal_pcd.c **** /**
 972:Drivers/STM32G4xx_HAL_Driver/Src/stm32g4xx_hal_pcd.c ****   * @brief  Stop the USB device.
 973:Drivers/STM32G4xx_HAL_Driver/Src/stm32g4xx_hal_pcd.c ****   * @param  hpcd PCD handle
 974:Drivers/STM32G4xx_HAL_Driver/Src/stm32g4xx_hal_pcd.c ****   * @retval HAL status
 975:Drivers/STM32G4xx_HAL_Driver/Src/stm32g4xx_hal_pcd.c ****   */
 976:Drivers/STM32G4xx_HAL_Driver/Src/stm32g4xx_hal_pcd.c **** HAL_StatusTypeDef HAL_PCD_Stop(PCD_HandleTypeDef *hpcd)
 977:Drivers/STM32G4xx_HAL_Driver/Src/stm32g4xx_hal_pcd.c **** {
 298              		.loc 1 977 0
 299              		.cfi_startproc
 300              		@ args = 0, pretend = 0, frame = 0
 301              		@ frame_needed = 0, uses_anonymous_args = 0
 302              	.LVL26:
 978:Drivers/STM32G4xx_HAL_Driver/Src/stm32g4xx_hal_pcd.c ****   __HAL_LOCK(hpcd);
 303              		.loc 1 978 0
ARM GAS  /var/folders/17/j_dgbcc52q10y0jc3c_zbwd80000gn/T//cc40SoIA.s 			page 24


 304 0000 90F82832 		ldrb	r3, [r0, #552]	@ zero_extendqisi2
 305 0004 012B     		cmp	r3, #1
 306 0006 0ED0     		beq	.L27
 977:Drivers/STM32G4xx_HAL_Driver/Src/stm32g4xx_hal_pcd.c ****   __HAL_LOCK(hpcd);
 307              		.loc 1 977 0 discriminator 2
 308 0008 10B5     		push	{r4, lr}
 309              		.cfi_def_cfa_offset 8
 310              		.cfi_offset 4, -8
 311              		.cfi_offset 14, -4
 312 000a 0446     		mov	r4, r0
 313              		.loc 1 978 0 discriminator 2
 314 000c 0123     		movs	r3, #1
 315 000e 80F82832 		strb	r3, [r0, #552]
 979:Drivers/STM32G4xx_HAL_Driver/Src/stm32g4xx_hal_pcd.c ****   __HAL_PCD_DISABLE(hpcd);
 316              		.loc 1 979 0 discriminator 2
 317 0012 0068     		ldr	r0, [r0]
 318              	.LVL27:
 319 0014 FFF7FEFF 		bl	USB_DisableGlobalInt
 320              	.LVL28:
 980:Drivers/STM32G4xx_HAL_Driver/Src/stm32g4xx_hal_pcd.c **** 
 981:Drivers/STM32G4xx_HAL_Driver/Src/stm32g4xx_hal_pcd.c ****   (void)USB_StopDevice(hpcd->Instance);
 321              		.loc 1 981 0 discriminator 2
 322 0018 2068     		ldr	r0, [r4]
 323 001a FFF7FEFF 		bl	USB_StopDevice
 324              	.LVL29:
 982:Drivers/STM32G4xx_HAL_Driver/Src/stm32g4xx_hal_pcd.c **** 
 983:Drivers/STM32G4xx_HAL_Driver/Src/stm32g4xx_hal_pcd.c ****   __HAL_UNLOCK(hpcd);
 325              		.loc 1 983 0 discriminator 2
 326 001e 0020     		movs	r0, #0
 327 0020 84F82802 		strb	r0, [r4, #552]
 984:Drivers/STM32G4xx_HAL_Driver/Src/stm32g4xx_hal_pcd.c **** 
 985:Drivers/STM32G4xx_HAL_Driver/Src/stm32g4xx_hal_pcd.c ****   return HAL_OK;
 986:Drivers/STM32G4xx_HAL_Driver/Src/stm32g4xx_hal_pcd.c **** }
 328              		.loc 1 986 0 discriminator 2
 329 0024 10BD     		pop	{r4, pc}
 330              	.LVL30:
 331              	.L27:
 332              		.cfi_def_cfa_offset 0
 333              		.cfi_restore 4
 334              		.cfi_restore 14
 978:Drivers/STM32G4xx_HAL_Driver/Src/stm32g4xx_hal_pcd.c ****   __HAL_PCD_DISABLE(hpcd);
 335              		.loc 1 978 0
 336 0026 0220     		movs	r0, #2
 337              	.LVL31:
 338              		.loc 1 986 0
 339 0028 7047     		bx	lr
 340              		.cfi_endproc
 341              	.LFE135:
 343              		.section	.text.HAL_PCD_DeInit,"ax",%progbits
 344              		.align	1
 345              		.global	HAL_PCD_DeInit
 346              		.syntax unified
 347              		.thumb
 348              		.thumb_func
 349              		.fpu fpv5-sp-d16
 351              	HAL_PCD_DeInit:
 352              	.LFB131:
ARM GAS  /var/folders/17/j_dgbcc52q10y0jc3c_zbwd80000gn/T//cc40SoIA.s 			page 25


 217:Drivers/STM32G4xx_HAL_Driver/Src/stm32g4xx_hal_pcd.c ****   /* Check the PCD handle allocation */
 353              		.loc 1 217 0
 354              		.cfi_startproc
 355              		@ args = 0, pretend = 0, frame = 0
 356              		@ frame_needed = 0, uses_anonymous_args = 0
 357              	.LVL32:
 219:Drivers/STM32G4xx_HAL_Driver/Src/stm32g4xx_hal_pcd.c ****   {
 358              		.loc 1 219 0
 359 0000 68B1     		cbz	r0, .L34
 217:Drivers/STM32G4xx_HAL_Driver/Src/stm32g4xx_hal_pcd.c ****   /* Check the PCD handle allocation */
 360              		.loc 1 217 0
 361 0002 10B5     		push	{r4, lr}
 362              		.cfi_def_cfa_offset 8
 363              		.cfi_offset 4, -8
 364              		.cfi_offset 14, -4
 365 0004 0446     		mov	r4, r0
 224:Drivers/STM32G4xx_HAL_Driver/Src/stm32g4xx_hal_pcd.c **** 
 366              		.loc 1 224 0
 367 0006 0323     		movs	r3, #3
 368 0008 80F82932 		strb	r3, [r0, #553]
 227:Drivers/STM32G4xx_HAL_Driver/Src/stm32g4xx_hal_pcd.c **** 
 369              		.loc 1 227 0
 370 000c FFF7FEFF 		bl	HAL_PCD_Stop
 371              	.LVL33:
 239:Drivers/STM32G4xx_HAL_Driver/Src/stm32g4xx_hal_pcd.c **** #endif /* USE_HAL_PCD_REGISTER_CALLBACKS */
 372              		.loc 1 239 0
 373 0010 2046     		mov	r0, r4
 374 0012 FFF7FEFF 		bl	HAL_PCD_MspDeInit
 375              	.LVL34:
 242:Drivers/STM32G4xx_HAL_Driver/Src/stm32g4xx_hal_pcd.c **** 
 376              		.loc 1 242 0
 377 0016 0020     		movs	r0, #0
 378 0018 84F82902 		strb	r0, [r4, #553]
 245:Drivers/STM32G4xx_HAL_Driver/Src/stm32g4xx_hal_pcd.c **** 
 379              		.loc 1 245 0
 380 001c 10BD     		pop	{r4, pc}
 381              	.LVL35:
 382              	.L34:
 383              		.cfi_def_cfa_offset 0
 384              		.cfi_restore 4
 385              		.cfi_restore 14
 221:Drivers/STM32G4xx_HAL_Driver/Src/stm32g4xx_hal_pcd.c ****   }
 386              		.loc 1 221 0
 387 001e 0120     		movs	r0, #1
 388              	.LVL36:
 245:Drivers/STM32G4xx_HAL_Driver/Src/stm32g4xx_hal_pcd.c **** 
 389              		.loc 1 245 0
 390 0020 7047     		bx	lr
 391              		.cfi_endproc
 392              	.LFE131:
 394              		.section	.text.HAL_PCD_DataOutStageCallback,"ax",%progbits
 395              		.align	1
 396              		.weak	HAL_PCD_DataOutStageCallback
 397              		.syntax unified
 398              		.thumb
 399              		.thumb_func
 400              		.fpu fpv5-sp-d16
ARM GAS  /var/folders/17/j_dgbcc52q10y0jc3c_zbwd80000gn/T//cc40SoIA.s 			page 26


 402              	HAL_PCD_DataOutStageCallback:
 403              	.LFB137:
 987:Drivers/STM32G4xx_HAL_Driver/Src/stm32g4xx_hal_pcd.c **** 
 988:Drivers/STM32G4xx_HAL_Driver/Src/stm32g4xx_hal_pcd.c **** 
 989:Drivers/STM32G4xx_HAL_Driver/Src/stm32g4xx_hal_pcd.c **** /**
 990:Drivers/STM32G4xx_HAL_Driver/Src/stm32g4xx_hal_pcd.c ****   * @brief  This function handles PCD interrupt request.
 991:Drivers/STM32G4xx_HAL_Driver/Src/stm32g4xx_hal_pcd.c ****   * @param  hpcd PCD handle
 992:Drivers/STM32G4xx_HAL_Driver/Src/stm32g4xx_hal_pcd.c ****   * @retval HAL status
 993:Drivers/STM32G4xx_HAL_Driver/Src/stm32g4xx_hal_pcd.c ****   */
 994:Drivers/STM32G4xx_HAL_Driver/Src/stm32g4xx_hal_pcd.c **** void HAL_PCD_IRQHandler(PCD_HandleTypeDef *hpcd)
 995:Drivers/STM32G4xx_HAL_Driver/Src/stm32g4xx_hal_pcd.c **** {
 996:Drivers/STM32G4xx_HAL_Driver/Src/stm32g4xx_hal_pcd.c ****   if (__HAL_PCD_GET_FLAG(hpcd, USB_ISTR_CTR))
 997:Drivers/STM32G4xx_HAL_Driver/Src/stm32g4xx_hal_pcd.c ****   {
 998:Drivers/STM32G4xx_HAL_Driver/Src/stm32g4xx_hal_pcd.c ****     /* servicing of the endpoint correct transfer interrupt */
 999:Drivers/STM32G4xx_HAL_Driver/Src/stm32g4xx_hal_pcd.c ****     /* clear of the CTR flag into the sub */
1000:Drivers/STM32G4xx_HAL_Driver/Src/stm32g4xx_hal_pcd.c ****     (void)PCD_EP_ISR_Handler(hpcd);
1001:Drivers/STM32G4xx_HAL_Driver/Src/stm32g4xx_hal_pcd.c ****   }
1002:Drivers/STM32G4xx_HAL_Driver/Src/stm32g4xx_hal_pcd.c **** 
1003:Drivers/STM32G4xx_HAL_Driver/Src/stm32g4xx_hal_pcd.c ****   if (__HAL_PCD_GET_FLAG(hpcd, USB_ISTR_RESET))
1004:Drivers/STM32G4xx_HAL_Driver/Src/stm32g4xx_hal_pcd.c ****   {
1005:Drivers/STM32G4xx_HAL_Driver/Src/stm32g4xx_hal_pcd.c ****     __HAL_PCD_CLEAR_FLAG(hpcd, USB_ISTR_RESET);
1006:Drivers/STM32G4xx_HAL_Driver/Src/stm32g4xx_hal_pcd.c **** 
1007:Drivers/STM32G4xx_HAL_Driver/Src/stm32g4xx_hal_pcd.c **** #if (USE_HAL_PCD_REGISTER_CALLBACKS == 1U)
1008:Drivers/STM32G4xx_HAL_Driver/Src/stm32g4xx_hal_pcd.c ****     hpcd->ResetCallback(hpcd);
1009:Drivers/STM32G4xx_HAL_Driver/Src/stm32g4xx_hal_pcd.c **** #else
1010:Drivers/STM32G4xx_HAL_Driver/Src/stm32g4xx_hal_pcd.c ****     HAL_PCD_ResetCallback(hpcd);
1011:Drivers/STM32G4xx_HAL_Driver/Src/stm32g4xx_hal_pcd.c **** #endif /* USE_HAL_PCD_REGISTER_CALLBACKS */
1012:Drivers/STM32G4xx_HAL_Driver/Src/stm32g4xx_hal_pcd.c **** 
1013:Drivers/STM32G4xx_HAL_Driver/Src/stm32g4xx_hal_pcd.c ****     (void)HAL_PCD_SetAddress(hpcd, 0U);
1014:Drivers/STM32G4xx_HAL_Driver/Src/stm32g4xx_hal_pcd.c ****   }
1015:Drivers/STM32G4xx_HAL_Driver/Src/stm32g4xx_hal_pcd.c **** 
1016:Drivers/STM32G4xx_HAL_Driver/Src/stm32g4xx_hal_pcd.c ****   if (__HAL_PCD_GET_FLAG(hpcd, USB_ISTR_PMAOVR))
1017:Drivers/STM32G4xx_HAL_Driver/Src/stm32g4xx_hal_pcd.c ****   {
1018:Drivers/STM32G4xx_HAL_Driver/Src/stm32g4xx_hal_pcd.c ****     __HAL_PCD_CLEAR_FLAG(hpcd, USB_ISTR_PMAOVR);
1019:Drivers/STM32G4xx_HAL_Driver/Src/stm32g4xx_hal_pcd.c ****   }
1020:Drivers/STM32G4xx_HAL_Driver/Src/stm32g4xx_hal_pcd.c **** 
1021:Drivers/STM32G4xx_HAL_Driver/Src/stm32g4xx_hal_pcd.c ****   if (__HAL_PCD_GET_FLAG(hpcd, USB_ISTR_ERR))
1022:Drivers/STM32G4xx_HAL_Driver/Src/stm32g4xx_hal_pcd.c ****   {
1023:Drivers/STM32G4xx_HAL_Driver/Src/stm32g4xx_hal_pcd.c ****     __HAL_PCD_CLEAR_FLAG(hpcd, USB_ISTR_ERR);
1024:Drivers/STM32G4xx_HAL_Driver/Src/stm32g4xx_hal_pcd.c ****   }
1025:Drivers/STM32G4xx_HAL_Driver/Src/stm32g4xx_hal_pcd.c **** 
1026:Drivers/STM32G4xx_HAL_Driver/Src/stm32g4xx_hal_pcd.c ****   if (__HAL_PCD_GET_FLAG(hpcd, USB_ISTR_WKUP))
1027:Drivers/STM32G4xx_HAL_Driver/Src/stm32g4xx_hal_pcd.c ****   {
1028:Drivers/STM32G4xx_HAL_Driver/Src/stm32g4xx_hal_pcd.c ****     hpcd->Instance->CNTR &= (uint16_t) ~(USB_CNTR_LPMODE);
1029:Drivers/STM32G4xx_HAL_Driver/Src/stm32g4xx_hal_pcd.c ****     hpcd->Instance->CNTR &= (uint16_t) ~(USB_CNTR_FSUSP);
1030:Drivers/STM32G4xx_HAL_Driver/Src/stm32g4xx_hal_pcd.c **** 
1031:Drivers/STM32G4xx_HAL_Driver/Src/stm32g4xx_hal_pcd.c ****     if (hpcd->LPM_State == LPM_L1)
1032:Drivers/STM32G4xx_HAL_Driver/Src/stm32g4xx_hal_pcd.c ****     {
1033:Drivers/STM32G4xx_HAL_Driver/Src/stm32g4xx_hal_pcd.c ****       hpcd->LPM_State = LPM_L0;
1034:Drivers/STM32G4xx_HAL_Driver/Src/stm32g4xx_hal_pcd.c **** #if (USE_HAL_PCD_REGISTER_CALLBACKS == 1U)
1035:Drivers/STM32G4xx_HAL_Driver/Src/stm32g4xx_hal_pcd.c ****       hpcd->LPMCallback(hpcd, PCD_LPM_L0_ACTIVE);
1036:Drivers/STM32G4xx_HAL_Driver/Src/stm32g4xx_hal_pcd.c **** #else
1037:Drivers/STM32G4xx_HAL_Driver/Src/stm32g4xx_hal_pcd.c ****       HAL_PCDEx_LPM_Callback(hpcd, PCD_LPM_L0_ACTIVE);
1038:Drivers/STM32G4xx_HAL_Driver/Src/stm32g4xx_hal_pcd.c **** #endif /* USE_HAL_PCD_REGISTER_CALLBACKS */
1039:Drivers/STM32G4xx_HAL_Driver/Src/stm32g4xx_hal_pcd.c ****     }
1040:Drivers/STM32G4xx_HAL_Driver/Src/stm32g4xx_hal_pcd.c **** 
1041:Drivers/STM32G4xx_HAL_Driver/Src/stm32g4xx_hal_pcd.c **** #if (USE_HAL_PCD_REGISTER_CALLBACKS == 1U)
ARM GAS  /var/folders/17/j_dgbcc52q10y0jc3c_zbwd80000gn/T//cc40SoIA.s 			page 27


1042:Drivers/STM32G4xx_HAL_Driver/Src/stm32g4xx_hal_pcd.c ****     hpcd->ResumeCallback(hpcd);
1043:Drivers/STM32G4xx_HAL_Driver/Src/stm32g4xx_hal_pcd.c **** #else
1044:Drivers/STM32G4xx_HAL_Driver/Src/stm32g4xx_hal_pcd.c ****     HAL_PCD_ResumeCallback(hpcd);
1045:Drivers/STM32G4xx_HAL_Driver/Src/stm32g4xx_hal_pcd.c **** #endif /* USE_HAL_PCD_REGISTER_CALLBACKS */
1046:Drivers/STM32G4xx_HAL_Driver/Src/stm32g4xx_hal_pcd.c **** 
1047:Drivers/STM32G4xx_HAL_Driver/Src/stm32g4xx_hal_pcd.c ****     __HAL_PCD_CLEAR_FLAG(hpcd, USB_ISTR_WKUP);
1048:Drivers/STM32G4xx_HAL_Driver/Src/stm32g4xx_hal_pcd.c ****   }
1049:Drivers/STM32G4xx_HAL_Driver/Src/stm32g4xx_hal_pcd.c **** 
1050:Drivers/STM32G4xx_HAL_Driver/Src/stm32g4xx_hal_pcd.c ****   if (__HAL_PCD_GET_FLAG(hpcd, USB_ISTR_SUSP))
1051:Drivers/STM32G4xx_HAL_Driver/Src/stm32g4xx_hal_pcd.c ****   {
1052:Drivers/STM32G4xx_HAL_Driver/Src/stm32g4xx_hal_pcd.c ****     /* Force low-power mode in the macrocell */
1053:Drivers/STM32G4xx_HAL_Driver/Src/stm32g4xx_hal_pcd.c ****     hpcd->Instance->CNTR |= (uint16_t)USB_CNTR_FSUSP;
1054:Drivers/STM32G4xx_HAL_Driver/Src/stm32g4xx_hal_pcd.c **** 
1055:Drivers/STM32G4xx_HAL_Driver/Src/stm32g4xx_hal_pcd.c ****     /* clear of the ISTR bit must be done after setting of CNTR_FSUSP */
1056:Drivers/STM32G4xx_HAL_Driver/Src/stm32g4xx_hal_pcd.c ****     __HAL_PCD_CLEAR_FLAG(hpcd, USB_ISTR_SUSP);
1057:Drivers/STM32G4xx_HAL_Driver/Src/stm32g4xx_hal_pcd.c **** 
1058:Drivers/STM32G4xx_HAL_Driver/Src/stm32g4xx_hal_pcd.c ****     hpcd->Instance->CNTR |= (uint16_t)USB_CNTR_LPMODE;
1059:Drivers/STM32G4xx_HAL_Driver/Src/stm32g4xx_hal_pcd.c **** 
1060:Drivers/STM32G4xx_HAL_Driver/Src/stm32g4xx_hal_pcd.c **** #if (USE_HAL_PCD_REGISTER_CALLBACKS == 1U)
1061:Drivers/STM32G4xx_HAL_Driver/Src/stm32g4xx_hal_pcd.c ****     hpcd->SuspendCallback(hpcd);
1062:Drivers/STM32G4xx_HAL_Driver/Src/stm32g4xx_hal_pcd.c **** #else
1063:Drivers/STM32G4xx_HAL_Driver/Src/stm32g4xx_hal_pcd.c ****     HAL_PCD_SuspendCallback(hpcd);
1064:Drivers/STM32G4xx_HAL_Driver/Src/stm32g4xx_hal_pcd.c **** #endif /* USE_HAL_PCD_REGISTER_CALLBACKS */
1065:Drivers/STM32G4xx_HAL_Driver/Src/stm32g4xx_hal_pcd.c ****   }
1066:Drivers/STM32G4xx_HAL_Driver/Src/stm32g4xx_hal_pcd.c **** 
1067:Drivers/STM32G4xx_HAL_Driver/Src/stm32g4xx_hal_pcd.c ****   /* Handle LPM Interrupt */
1068:Drivers/STM32G4xx_HAL_Driver/Src/stm32g4xx_hal_pcd.c ****   if (__HAL_PCD_GET_FLAG(hpcd, USB_ISTR_L1REQ))
1069:Drivers/STM32G4xx_HAL_Driver/Src/stm32g4xx_hal_pcd.c ****   {
1070:Drivers/STM32G4xx_HAL_Driver/Src/stm32g4xx_hal_pcd.c ****     __HAL_PCD_CLEAR_FLAG(hpcd, USB_ISTR_L1REQ);
1071:Drivers/STM32G4xx_HAL_Driver/Src/stm32g4xx_hal_pcd.c ****     if (hpcd->LPM_State == LPM_L0)
1072:Drivers/STM32G4xx_HAL_Driver/Src/stm32g4xx_hal_pcd.c ****     {
1073:Drivers/STM32G4xx_HAL_Driver/Src/stm32g4xx_hal_pcd.c ****       /* Force suspend and low-power mode before going to L1 state*/
1074:Drivers/STM32G4xx_HAL_Driver/Src/stm32g4xx_hal_pcd.c ****       hpcd->Instance->CNTR |= (uint16_t)USB_CNTR_LPMODE;
1075:Drivers/STM32G4xx_HAL_Driver/Src/stm32g4xx_hal_pcd.c ****       hpcd->Instance->CNTR |= (uint16_t)USB_CNTR_FSUSP;
1076:Drivers/STM32G4xx_HAL_Driver/Src/stm32g4xx_hal_pcd.c **** 
1077:Drivers/STM32G4xx_HAL_Driver/Src/stm32g4xx_hal_pcd.c ****       hpcd->LPM_State = LPM_L1;
1078:Drivers/STM32G4xx_HAL_Driver/Src/stm32g4xx_hal_pcd.c ****       hpcd->BESL = ((uint32_t)hpcd->Instance->LPMCSR & USB_LPMCSR_BESL) >> 2;
1079:Drivers/STM32G4xx_HAL_Driver/Src/stm32g4xx_hal_pcd.c **** #if (USE_HAL_PCD_REGISTER_CALLBACKS == 1U)
1080:Drivers/STM32G4xx_HAL_Driver/Src/stm32g4xx_hal_pcd.c ****       hpcd->LPMCallback(hpcd, PCD_LPM_L1_ACTIVE);
1081:Drivers/STM32G4xx_HAL_Driver/Src/stm32g4xx_hal_pcd.c **** #else
1082:Drivers/STM32G4xx_HAL_Driver/Src/stm32g4xx_hal_pcd.c ****       HAL_PCDEx_LPM_Callback(hpcd, PCD_LPM_L1_ACTIVE);
1083:Drivers/STM32G4xx_HAL_Driver/Src/stm32g4xx_hal_pcd.c **** #endif /* USE_HAL_PCD_REGISTER_CALLBACKS */
1084:Drivers/STM32G4xx_HAL_Driver/Src/stm32g4xx_hal_pcd.c ****     }
1085:Drivers/STM32G4xx_HAL_Driver/Src/stm32g4xx_hal_pcd.c ****     else
1086:Drivers/STM32G4xx_HAL_Driver/Src/stm32g4xx_hal_pcd.c ****     {
1087:Drivers/STM32G4xx_HAL_Driver/Src/stm32g4xx_hal_pcd.c **** #if (USE_HAL_PCD_REGISTER_CALLBACKS == 1U)
1088:Drivers/STM32G4xx_HAL_Driver/Src/stm32g4xx_hal_pcd.c ****       hpcd->SuspendCallback(hpcd);
1089:Drivers/STM32G4xx_HAL_Driver/Src/stm32g4xx_hal_pcd.c **** #else
1090:Drivers/STM32G4xx_HAL_Driver/Src/stm32g4xx_hal_pcd.c ****       HAL_PCD_SuspendCallback(hpcd);
1091:Drivers/STM32G4xx_HAL_Driver/Src/stm32g4xx_hal_pcd.c **** #endif /* USE_HAL_PCD_REGISTER_CALLBACKS */
1092:Drivers/STM32G4xx_HAL_Driver/Src/stm32g4xx_hal_pcd.c ****     }
1093:Drivers/STM32G4xx_HAL_Driver/Src/stm32g4xx_hal_pcd.c ****   }
1094:Drivers/STM32G4xx_HAL_Driver/Src/stm32g4xx_hal_pcd.c **** 
1095:Drivers/STM32G4xx_HAL_Driver/Src/stm32g4xx_hal_pcd.c ****   if (__HAL_PCD_GET_FLAG(hpcd, USB_ISTR_SOF))
1096:Drivers/STM32G4xx_HAL_Driver/Src/stm32g4xx_hal_pcd.c ****   {
1097:Drivers/STM32G4xx_HAL_Driver/Src/stm32g4xx_hal_pcd.c ****     __HAL_PCD_CLEAR_FLAG(hpcd, USB_ISTR_SOF);
1098:Drivers/STM32G4xx_HAL_Driver/Src/stm32g4xx_hal_pcd.c **** 
ARM GAS  /var/folders/17/j_dgbcc52q10y0jc3c_zbwd80000gn/T//cc40SoIA.s 			page 28


1099:Drivers/STM32G4xx_HAL_Driver/Src/stm32g4xx_hal_pcd.c **** #if (USE_HAL_PCD_REGISTER_CALLBACKS == 1U)
1100:Drivers/STM32G4xx_HAL_Driver/Src/stm32g4xx_hal_pcd.c ****     hpcd->SOFCallback(hpcd);
1101:Drivers/STM32G4xx_HAL_Driver/Src/stm32g4xx_hal_pcd.c **** #else
1102:Drivers/STM32G4xx_HAL_Driver/Src/stm32g4xx_hal_pcd.c ****     HAL_PCD_SOFCallback(hpcd);
1103:Drivers/STM32G4xx_HAL_Driver/Src/stm32g4xx_hal_pcd.c **** #endif /* USE_HAL_PCD_REGISTER_CALLBACKS */
1104:Drivers/STM32G4xx_HAL_Driver/Src/stm32g4xx_hal_pcd.c ****   }
1105:Drivers/STM32G4xx_HAL_Driver/Src/stm32g4xx_hal_pcd.c **** 
1106:Drivers/STM32G4xx_HAL_Driver/Src/stm32g4xx_hal_pcd.c ****   if (__HAL_PCD_GET_FLAG(hpcd, USB_ISTR_ESOF))
1107:Drivers/STM32G4xx_HAL_Driver/Src/stm32g4xx_hal_pcd.c ****   {
1108:Drivers/STM32G4xx_HAL_Driver/Src/stm32g4xx_hal_pcd.c ****     /* clear ESOF flag in ISTR */
1109:Drivers/STM32G4xx_HAL_Driver/Src/stm32g4xx_hal_pcd.c ****     __HAL_PCD_CLEAR_FLAG(hpcd, USB_ISTR_ESOF);
1110:Drivers/STM32G4xx_HAL_Driver/Src/stm32g4xx_hal_pcd.c ****   }
1111:Drivers/STM32G4xx_HAL_Driver/Src/stm32g4xx_hal_pcd.c **** }
1112:Drivers/STM32G4xx_HAL_Driver/Src/stm32g4xx_hal_pcd.c **** 
1113:Drivers/STM32G4xx_HAL_Driver/Src/stm32g4xx_hal_pcd.c **** 
1114:Drivers/STM32G4xx_HAL_Driver/Src/stm32g4xx_hal_pcd.c **** /**
1115:Drivers/STM32G4xx_HAL_Driver/Src/stm32g4xx_hal_pcd.c ****   * @brief  Data OUT stage callback.
1116:Drivers/STM32G4xx_HAL_Driver/Src/stm32g4xx_hal_pcd.c ****   * @param  hpcd PCD handle
1117:Drivers/STM32G4xx_HAL_Driver/Src/stm32g4xx_hal_pcd.c ****   * @param  epnum endpoint number
1118:Drivers/STM32G4xx_HAL_Driver/Src/stm32g4xx_hal_pcd.c ****   * @retval None
1119:Drivers/STM32G4xx_HAL_Driver/Src/stm32g4xx_hal_pcd.c ****   */
1120:Drivers/STM32G4xx_HAL_Driver/Src/stm32g4xx_hal_pcd.c **** __weak void HAL_PCD_DataOutStageCallback(PCD_HandleTypeDef *hpcd, uint8_t epnum)
1121:Drivers/STM32G4xx_HAL_Driver/Src/stm32g4xx_hal_pcd.c **** {
 404              		.loc 1 1121 0
 405              		.cfi_startproc
 406              		@ args = 0, pretend = 0, frame = 0
 407              		@ frame_needed = 0, uses_anonymous_args = 0
 408              		@ link register save eliminated.
 409              	.LVL37:
1122:Drivers/STM32G4xx_HAL_Driver/Src/stm32g4xx_hal_pcd.c ****   /* Prevent unused argument(s) compilation warning */
1123:Drivers/STM32G4xx_HAL_Driver/Src/stm32g4xx_hal_pcd.c ****   UNUSED(hpcd);
1124:Drivers/STM32G4xx_HAL_Driver/Src/stm32g4xx_hal_pcd.c ****   UNUSED(epnum);
1125:Drivers/STM32G4xx_HAL_Driver/Src/stm32g4xx_hal_pcd.c **** 
1126:Drivers/STM32G4xx_HAL_Driver/Src/stm32g4xx_hal_pcd.c ****   /* NOTE : This function should not be modified, when the callback is needed,
1127:Drivers/STM32G4xx_HAL_Driver/Src/stm32g4xx_hal_pcd.c ****             the HAL_PCD_DataOutStageCallback could be implemented in the user file
1128:Drivers/STM32G4xx_HAL_Driver/Src/stm32g4xx_hal_pcd.c ****    */
1129:Drivers/STM32G4xx_HAL_Driver/Src/stm32g4xx_hal_pcd.c **** }
 410              		.loc 1 1129 0
 411 0000 7047     		bx	lr
 412              		.cfi_endproc
 413              	.LFE137:
 415              		.section	.text.HAL_PCD_DataInStageCallback,"ax",%progbits
 416              		.align	1
 417              		.weak	HAL_PCD_DataInStageCallback
 418              		.syntax unified
 419              		.thumb
 420              		.thumb_func
 421              		.fpu fpv5-sp-d16
 423              	HAL_PCD_DataInStageCallback:
 424              	.LFB138:
1130:Drivers/STM32G4xx_HAL_Driver/Src/stm32g4xx_hal_pcd.c **** 
1131:Drivers/STM32G4xx_HAL_Driver/Src/stm32g4xx_hal_pcd.c **** /**
1132:Drivers/STM32G4xx_HAL_Driver/Src/stm32g4xx_hal_pcd.c ****   * @brief  Data IN stage callback
1133:Drivers/STM32G4xx_HAL_Driver/Src/stm32g4xx_hal_pcd.c ****   * @param  hpcd PCD handle
1134:Drivers/STM32G4xx_HAL_Driver/Src/stm32g4xx_hal_pcd.c ****   * @param  epnum endpoint number
1135:Drivers/STM32G4xx_HAL_Driver/Src/stm32g4xx_hal_pcd.c ****   * @retval None
1136:Drivers/STM32G4xx_HAL_Driver/Src/stm32g4xx_hal_pcd.c ****   */
ARM GAS  /var/folders/17/j_dgbcc52q10y0jc3c_zbwd80000gn/T//cc40SoIA.s 			page 29


1137:Drivers/STM32G4xx_HAL_Driver/Src/stm32g4xx_hal_pcd.c **** __weak void HAL_PCD_DataInStageCallback(PCD_HandleTypeDef *hpcd, uint8_t epnum)
1138:Drivers/STM32G4xx_HAL_Driver/Src/stm32g4xx_hal_pcd.c **** {
 425              		.loc 1 1138 0
 426              		.cfi_startproc
 427              		@ args = 0, pretend = 0, frame = 0
 428              		@ frame_needed = 0, uses_anonymous_args = 0
 429              		@ link register save eliminated.
 430              	.LVL38:
1139:Drivers/STM32G4xx_HAL_Driver/Src/stm32g4xx_hal_pcd.c ****   /* Prevent unused argument(s) compilation warning */
1140:Drivers/STM32G4xx_HAL_Driver/Src/stm32g4xx_hal_pcd.c ****   UNUSED(hpcd);
1141:Drivers/STM32G4xx_HAL_Driver/Src/stm32g4xx_hal_pcd.c ****   UNUSED(epnum);
1142:Drivers/STM32G4xx_HAL_Driver/Src/stm32g4xx_hal_pcd.c **** 
1143:Drivers/STM32G4xx_HAL_Driver/Src/stm32g4xx_hal_pcd.c ****   /* NOTE : This function should not be modified, when the callback is needed,
1144:Drivers/STM32G4xx_HAL_Driver/Src/stm32g4xx_hal_pcd.c ****             the HAL_PCD_DataInStageCallback could be implemented in the user file
1145:Drivers/STM32G4xx_HAL_Driver/Src/stm32g4xx_hal_pcd.c ****    */
1146:Drivers/STM32G4xx_HAL_Driver/Src/stm32g4xx_hal_pcd.c **** }
 431              		.loc 1 1146 0
 432 0000 7047     		bx	lr
 433              		.cfi_endproc
 434              	.LFE138:
 436              		.section	.text.HAL_PCD_SetupStageCallback,"ax",%progbits
 437              		.align	1
 438              		.weak	HAL_PCD_SetupStageCallback
 439              		.syntax unified
 440              		.thumb
 441              		.thumb_func
 442              		.fpu fpv5-sp-d16
 444              	HAL_PCD_SetupStageCallback:
 445              	.LFB139:
1147:Drivers/STM32G4xx_HAL_Driver/Src/stm32g4xx_hal_pcd.c **** /**
1148:Drivers/STM32G4xx_HAL_Driver/Src/stm32g4xx_hal_pcd.c ****   * @brief  Setup stage callback
1149:Drivers/STM32G4xx_HAL_Driver/Src/stm32g4xx_hal_pcd.c ****   * @param  hpcd PCD handle
1150:Drivers/STM32G4xx_HAL_Driver/Src/stm32g4xx_hal_pcd.c ****   * @retval None
1151:Drivers/STM32G4xx_HAL_Driver/Src/stm32g4xx_hal_pcd.c ****   */
1152:Drivers/STM32G4xx_HAL_Driver/Src/stm32g4xx_hal_pcd.c **** __weak void HAL_PCD_SetupStageCallback(PCD_HandleTypeDef *hpcd)
1153:Drivers/STM32G4xx_HAL_Driver/Src/stm32g4xx_hal_pcd.c **** {
 446              		.loc 1 1153 0
 447              		.cfi_startproc
 448              		@ args = 0, pretend = 0, frame = 0
 449              		@ frame_needed = 0, uses_anonymous_args = 0
 450              		@ link register save eliminated.
 451              	.LVL39:
1154:Drivers/STM32G4xx_HAL_Driver/Src/stm32g4xx_hal_pcd.c ****   /* Prevent unused argument(s) compilation warning */
1155:Drivers/STM32G4xx_HAL_Driver/Src/stm32g4xx_hal_pcd.c ****   UNUSED(hpcd);
1156:Drivers/STM32G4xx_HAL_Driver/Src/stm32g4xx_hal_pcd.c **** 
1157:Drivers/STM32G4xx_HAL_Driver/Src/stm32g4xx_hal_pcd.c ****   /* NOTE : This function should not be modified, when the callback is needed,
1158:Drivers/STM32G4xx_HAL_Driver/Src/stm32g4xx_hal_pcd.c ****             the HAL_PCD_SetupStageCallback could be implemented in the user file
1159:Drivers/STM32G4xx_HAL_Driver/Src/stm32g4xx_hal_pcd.c ****    */
1160:Drivers/STM32G4xx_HAL_Driver/Src/stm32g4xx_hal_pcd.c **** }
 452              		.loc 1 1160 0
 453 0000 7047     		bx	lr
 454              		.cfi_endproc
 455              	.LFE139:
 457              		.section	.text.HAL_PCD_SOFCallback,"ax",%progbits
 458              		.align	1
 459              		.weak	HAL_PCD_SOFCallback
 460              		.syntax unified
ARM GAS  /var/folders/17/j_dgbcc52q10y0jc3c_zbwd80000gn/T//cc40SoIA.s 			page 30


 461              		.thumb
 462              		.thumb_func
 463              		.fpu fpv5-sp-d16
 465              	HAL_PCD_SOFCallback:
 466              	.LFB140:
1161:Drivers/STM32G4xx_HAL_Driver/Src/stm32g4xx_hal_pcd.c **** 
1162:Drivers/STM32G4xx_HAL_Driver/Src/stm32g4xx_hal_pcd.c **** /**
1163:Drivers/STM32G4xx_HAL_Driver/Src/stm32g4xx_hal_pcd.c ****   * @brief  USB Start Of Frame callback.
1164:Drivers/STM32G4xx_HAL_Driver/Src/stm32g4xx_hal_pcd.c ****   * @param  hpcd PCD handle
1165:Drivers/STM32G4xx_HAL_Driver/Src/stm32g4xx_hal_pcd.c ****   * @retval None
1166:Drivers/STM32G4xx_HAL_Driver/Src/stm32g4xx_hal_pcd.c ****   */
1167:Drivers/STM32G4xx_HAL_Driver/Src/stm32g4xx_hal_pcd.c **** __weak void HAL_PCD_SOFCallback(PCD_HandleTypeDef *hpcd)
1168:Drivers/STM32G4xx_HAL_Driver/Src/stm32g4xx_hal_pcd.c **** {
 467              		.loc 1 1168 0
 468              		.cfi_startproc
 469              		@ args = 0, pretend = 0, frame = 0
 470              		@ frame_needed = 0, uses_anonymous_args = 0
 471              		@ link register save eliminated.
 472              	.LVL40:
1169:Drivers/STM32G4xx_HAL_Driver/Src/stm32g4xx_hal_pcd.c ****   /* Prevent unused argument(s) compilation warning */
1170:Drivers/STM32G4xx_HAL_Driver/Src/stm32g4xx_hal_pcd.c ****   UNUSED(hpcd);
1171:Drivers/STM32G4xx_HAL_Driver/Src/stm32g4xx_hal_pcd.c **** 
1172:Drivers/STM32G4xx_HAL_Driver/Src/stm32g4xx_hal_pcd.c ****   /* NOTE : This function should not be modified, when the callback is needed,
1173:Drivers/STM32G4xx_HAL_Driver/Src/stm32g4xx_hal_pcd.c ****             the HAL_PCD_SOFCallback could be implemented in the user file
1174:Drivers/STM32G4xx_HAL_Driver/Src/stm32g4xx_hal_pcd.c ****    */
1175:Drivers/STM32G4xx_HAL_Driver/Src/stm32g4xx_hal_pcd.c **** }
 473              		.loc 1 1175 0
 474 0000 7047     		bx	lr
 475              		.cfi_endproc
 476              	.LFE140:
 478              		.section	.text.HAL_PCD_ResetCallback,"ax",%progbits
 479              		.align	1
 480              		.weak	HAL_PCD_ResetCallback
 481              		.syntax unified
 482              		.thumb
 483              		.thumb_func
 484              		.fpu fpv5-sp-d16
 486              	HAL_PCD_ResetCallback:
 487              	.LFB141:
1176:Drivers/STM32G4xx_HAL_Driver/Src/stm32g4xx_hal_pcd.c **** 
1177:Drivers/STM32G4xx_HAL_Driver/Src/stm32g4xx_hal_pcd.c **** /**
1178:Drivers/STM32G4xx_HAL_Driver/Src/stm32g4xx_hal_pcd.c ****   * @brief  USB Reset callback.
1179:Drivers/STM32G4xx_HAL_Driver/Src/stm32g4xx_hal_pcd.c ****   * @param  hpcd PCD handle
1180:Drivers/STM32G4xx_HAL_Driver/Src/stm32g4xx_hal_pcd.c ****   * @retval None
1181:Drivers/STM32G4xx_HAL_Driver/Src/stm32g4xx_hal_pcd.c ****   */
1182:Drivers/STM32G4xx_HAL_Driver/Src/stm32g4xx_hal_pcd.c **** __weak void HAL_PCD_ResetCallback(PCD_HandleTypeDef *hpcd)
1183:Drivers/STM32G4xx_HAL_Driver/Src/stm32g4xx_hal_pcd.c **** {
 488              		.loc 1 1183 0
 489              		.cfi_startproc
 490              		@ args = 0, pretend = 0, frame = 0
 491              		@ frame_needed = 0, uses_anonymous_args = 0
 492              		@ link register save eliminated.
 493              	.LVL41:
1184:Drivers/STM32G4xx_HAL_Driver/Src/stm32g4xx_hal_pcd.c ****   /* Prevent unused argument(s) compilation warning */
1185:Drivers/STM32G4xx_HAL_Driver/Src/stm32g4xx_hal_pcd.c ****   UNUSED(hpcd);
1186:Drivers/STM32G4xx_HAL_Driver/Src/stm32g4xx_hal_pcd.c **** 
1187:Drivers/STM32G4xx_HAL_Driver/Src/stm32g4xx_hal_pcd.c ****   /* NOTE : This function should not be modified, when the callback is needed,
ARM GAS  /var/folders/17/j_dgbcc52q10y0jc3c_zbwd80000gn/T//cc40SoIA.s 			page 31


1188:Drivers/STM32G4xx_HAL_Driver/Src/stm32g4xx_hal_pcd.c ****             the HAL_PCD_ResetCallback could be implemented in the user file
1189:Drivers/STM32G4xx_HAL_Driver/Src/stm32g4xx_hal_pcd.c ****    */
1190:Drivers/STM32G4xx_HAL_Driver/Src/stm32g4xx_hal_pcd.c **** }
 494              		.loc 1 1190 0
 495 0000 7047     		bx	lr
 496              		.cfi_endproc
 497              	.LFE141:
 499              		.section	.text.HAL_PCD_SuspendCallback,"ax",%progbits
 500              		.align	1
 501              		.weak	HAL_PCD_SuspendCallback
 502              		.syntax unified
 503              		.thumb
 504              		.thumb_func
 505              		.fpu fpv5-sp-d16
 507              	HAL_PCD_SuspendCallback:
 508              	.LFB142:
1191:Drivers/STM32G4xx_HAL_Driver/Src/stm32g4xx_hal_pcd.c **** 
1192:Drivers/STM32G4xx_HAL_Driver/Src/stm32g4xx_hal_pcd.c **** /**
1193:Drivers/STM32G4xx_HAL_Driver/Src/stm32g4xx_hal_pcd.c ****   * @brief  Suspend event callback.
1194:Drivers/STM32G4xx_HAL_Driver/Src/stm32g4xx_hal_pcd.c ****   * @param  hpcd PCD handle
1195:Drivers/STM32G4xx_HAL_Driver/Src/stm32g4xx_hal_pcd.c ****   * @retval None
1196:Drivers/STM32G4xx_HAL_Driver/Src/stm32g4xx_hal_pcd.c ****   */
1197:Drivers/STM32G4xx_HAL_Driver/Src/stm32g4xx_hal_pcd.c **** __weak void HAL_PCD_SuspendCallback(PCD_HandleTypeDef *hpcd)
1198:Drivers/STM32G4xx_HAL_Driver/Src/stm32g4xx_hal_pcd.c **** {
 509              		.loc 1 1198 0
 510              		.cfi_startproc
 511              		@ args = 0, pretend = 0, frame = 0
 512              		@ frame_needed = 0, uses_anonymous_args = 0
 513              		@ link register save eliminated.
 514              	.LVL42:
1199:Drivers/STM32G4xx_HAL_Driver/Src/stm32g4xx_hal_pcd.c ****   /* Prevent unused argument(s) compilation warning */
1200:Drivers/STM32G4xx_HAL_Driver/Src/stm32g4xx_hal_pcd.c ****   UNUSED(hpcd);
1201:Drivers/STM32G4xx_HAL_Driver/Src/stm32g4xx_hal_pcd.c **** 
1202:Drivers/STM32G4xx_HAL_Driver/Src/stm32g4xx_hal_pcd.c ****   /* NOTE : This function should not be modified, when the callback is needed,
1203:Drivers/STM32G4xx_HAL_Driver/Src/stm32g4xx_hal_pcd.c ****             the HAL_PCD_SuspendCallback could be implemented in the user file
1204:Drivers/STM32G4xx_HAL_Driver/Src/stm32g4xx_hal_pcd.c ****    */
1205:Drivers/STM32G4xx_HAL_Driver/Src/stm32g4xx_hal_pcd.c **** }
 515              		.loc 1 1205 0
 516 0000 7047     		bx	lr
 517              		.cfi_endproc
 518              	.LFE142:
 520              		.section	.text.HAL_PCD_ResumeCallback,"ax",%progbits
 521              		.align	1
 522              		.weak	HAL_PCD_ResumeCallback
 523              		.syntax unified
 524              		.thumb
 525              		.thumb_func
 526              		.fpu fpv5-sp-d16
 528              	HAL_PCD_ResumeCallback:
 529              	.LFB143:
1206:Drivers/STM32G4xx_HAL_Driver/Src/stm32g4xx_hal_pcd.c **** 
1207:Drivers/STM32G4xx_HAL_Driver/Src/stm32g4xx_hal_pcd.c **** /**
1208:Drivers/STM32G4xx_HAL_Driver/Src/stm32g4xx_hal_pcd.c ****   * @brief  Resume event callback.
1209:Drivers/STM32G4xx_HAL_Driver/Src/stm32g4xx_hal_pcd.c ****   * @param  hpcd PCD handle
1210:Drivers/STM32G4xx_HAL_Driver/Src/stm32g4xx_hal_pcd.c ****   * @retval None
1211:Drivers/STM32G4xx_HAL_Driver/Src/stm32g4xx_hal_pcd.c ****   */
1212:Drivers/STM32G4xx_HAL_Driver/Src/stm32g4xx_hal_pcd.c **** __weak void HAL_PCD_ResumeCallback(PCD_HandleTypeDef *hpcd)
ARM GAS  /var/folders/17/j_dgbcc52q10y0jc3c_zbwd80000gn/T//cc40SoIA.s 			page 32


1213:Drivers/STM32G4xx_HAL_Driver/Src/stm32g4xx_hal_pcd.c **** {
 530              		.loc 1 1213 0
 531              		.cfi_startproc
 532              		@ args = 0, pretend = 0, frame = 0
 533              		@ frame_needed = 0, uses_anonymous_args = 0
 534              		@ link register save eliminated.
 535              	.LVL43:
1214:Drivers/STM32G4xx_HAL_Driver/Src/stm32g4xx_hal_pcd.c ****   /* Prevent unused argument(s) compilation warning */
1215:Drivers/STM32G4xx_HAL_Driver/Src/stm32g4xx_hal_pcd.c ****   UNUSED(hpcd);
1216:Drivers/STM32G4xx_HAL_Driver/Src/stm32g4xx_hal_pcd.c **** 
1217:Drivers/STM32G4xx_HAL_Driver/Src/stm32g4xx_hal_pcd.c ****   /* NOTE : This function should not be modified, when the callback is needed,
1218:Drivers/STM32G4xx_HAL_Driver/Src/stm32g4xx_hal_pcd.c ****             the HAL_PCD_ResumeCallback could be implemented in the user file
1219:Drivers/STM32G4xx_HAL_Driver/Src/stm32g4xx_hal_pcd.c ****    */
1220:Drivers/STM32G4xx_HAL_Driver/Src/stm32g4xx_hal_pcd.c **** }
 536              		.loc 1 1220 0
 537 0000 7047     		bx	lr
 538              		.cfi_endproc
 539              	.LFE143:
 541              		.section	.text.HAL_PCD_ISOOUTIncompleteCallback,"ax",%progbits
 542              		.align	1
 543              		.weak	HAL_PCD_ISOOUTIncompleteCallback
 544              		.syntax unified
 545              		.thumb
 546              		.thumb_func
 547              		.fpu fpv5-sp-d16
 549              	HAL_PCD_ISOOUTIncompleteCallback:
 550              	.LFB144:
1221:Drivers/STM32G4xx_HAL_Driver/Src/stm32g4xx_hal_pcd.c **** 
1222:Drivers/STM32G4xx_HAL_Driver/Src/stm32g4xx_hal_pcd.c **** /**
1223:Drivers/STM32G4xx_HAL_Driver/Src/stm32g4xx_hal_pcd.c ****   * @brief  Incomplete ISO OUT callback.
1224:Drivers/STM32G4xx_HAL_Driver/Src/stm32g4xx_hal_pcd.c ****   * @param  hpcd PCD handle
1225:Drivers/STM32G4xx_HAL_Driver/Src/stm32g4xx_hal_pcd.c ****   * @param  epnum endpoint number
1226:Drivers/STM32G4xx_HAL_Driver/Src/stm32g4xx_hal_pcd.c ****   * @retval None
1227:Drivers/STM32G4xx_HAL_Driver/Src/stm32g4xx_hal_pcd.c ****   */
1228:Drivers/STM32G4xx_HAL_Driver/Src/stm32g4xx_hal_pcd.c **** __weak void HAL_PCD_ISOOUTIncompleteCallback(PCD_HandleTypeDef *hpcd, uint8_t epnum)
1229:Drivers/STM32G4xx_HAL_Driver/Src/stm32g4xx_hal_pcd.c **** {
 551              		.loc 1 1229 0
 552              		.cfi_startproc
 553              		@ args = 0, pretend = 0, frame = 0
 554              		@ frame_needed = 0, uses_anonymous_args = 0
 555              		@ link register save eliminated.
 556              	.LVL44:
1230:Drivers/STM32G4xx_HAL_Driver/Src/stm32g4xx_hal_pcd.c ****   /* Prevent unused argument(s) compilation warning */
1231:Drivers/STM32G4xx_HAL_Driver/Src/stm32g4xx_hal_pcd.c ****   UNUSED(hpcd);
1232:Drivers/STM32G4xx_HAL_Driver/Src/stm32g4xx_hal_pcd.c ****   UNUSED(epnum);
1233:Drivers/STM32G4xx_HAL_Driver/Src/stm32g4xx_hal_pcd.c **** 
1234:Drivers/STM32G4xx_HAL_Driver/Src/stm32g4xx_hal_pcd.c ****   /* NOTE : This function should not be modified, when the callback is needed,
1235:Drivers/STM32G4xx_HAL_Driver/Src/stm32g4xx_hal_pcd.c ****             the HAL_PCD_ISOOUTIncompleteCallback could be implemented in the user file
1236:Drivers/STM32G4xx_HAL_Driver/Src/stm32g4xx_hal_pcd.c ****    */
1237:Drivers/STM32G4xx_HAL_Driver/Src/stm32g4xx_hal_pcd.c **** }
 557              		.loc 1 1237 0
 558 0000 7047     		bx	lr
 559              		.cfi_endproc
 560              	.LFE144:
 562              		.section	.text.HAL_PCD_ISOINIncompleteCallback,"ax",%progbits
 563              		.align	1
 564              		.weak	HAL_PCD_ISOINIncompleteCallback
ARM GAS  /var/folders/17/j_dgbcc52q10y0jc3c_zbwd80000gn/T//cc40SoIA.s 			page 33


 565              		.syntax unified
 566              		.thumb
 567              		.thumb_func
 568              		.fpu fpv5-sp-d16
 570              	HAL_PCD_ISOINIncompleteCallback:
 571              	.LFB145:
1238:Drivers/STM32G4xx_HAL_Driver/Src/stm32g4xx_hal_pcd.c **** 
1239:Drivers/STM32G4xx_HAL_Driver/Src/stm32g4xx_hal_pcd.c **** /**
1240:Drivers/STM32G4xx_HAL_Driver/Src/stm32g4xx_hal_pcd.c ****   * @brief  Incomplete ISO IN callback.
1241:Drivers/STM32G4xx_HAL_Driver/Src/stm32g4xx_hal_pcd.c ****   * @param  hpcd PCD handle
1242:Drivers/STM32G4xx_HAL_Driver/Src/stm32g4xx_hal_pcd.c ****   * @param  epnum endpoint number
1243:Drivers/STM32G4xx_HAL_Driver/Src/stm32g4xx_hal_pcd.c ****   * @retval None
1244:Drivers/STM32G4xx_HAL_Driver/Src/stm32g4xx_hal_pcd.c ****   */
1245:Drivers/STM32G4xx_HAL_Driver/Src/stm32g4xx_hal_pcd.c **** __weak void HAL_PCD_ISOINIncompleteCallback(PCD_HandleTypeDef *hpcd, uint8_t epnum)
1246:Drivers/STM32G4xx_HAL_Driver/Src/stm32g4xx_hal_pcd.c **** {
 572              		.loc 1 1246 0
 573              		.cfi_startproc
 574              		@ args = 0, pretend = 0, frame = 0
 575              		@ frame_needed = 0, uses_anonymous_args = 0
 576              		@ link register save eliminated.
 577              	.LVL45:
1247:Drivers/STM32G4xx_HAL_Driver/Src/stm32g4xx_hal_pcd.c ****   /* Prevent unused argument(s) compilation warning */
1248:Drivers/STM32G4xx_HAL_Driver/Src/stm32g4xx_hal_pcd.c ****   UNUSED(hpcd);
1249:Drivers/STM32G4xx_HAL_Driver/Src/stm32g4xx_hal_pcd.c ****   UNUSED(epnum);
1250:Drivers/STM32G4xx_HAL_Driver/Src/stm32g4xx_hal_pcd.c **** 
1251:Drivers/STM32G4xx_HAL_Driver/Src/stm32g4xx_hal_pcd.c ****   /* NOTE : This function should not be modified, when the callback is needed,
1252:Drivers/STM32G4xx_HAL_Driver/Src/stm32g4xx_hal_pcd.c ****             the HAL_PCD_ISOINIncompleteCallback could be implemented in the user file
1253:Drivers/STM32G4xx_HAL_Driver/Src/stm32g4xx_hal_pcd.c ****    */
1254:Drivers/STM32G4xx_HAL_Driver/Src/stm32g4xx_hal_pcd.c **** }
 578              		.loc 1 1254 0
 579 0000 7047     		bx	lr
 580              		.cfi_endproc
 581              	.LFE145:
 583              		.section	.text.HAL_PCD_ConnectCallback,"ax",%progbits
 584              		.align	1
 585              		.weak	HAL_PCD_ConnectCallback
 586              		.syntax unified
 587              		.thumb
 588              		.thumb_func
 589              		.fpu fpv5-sp-d16
 591              	HAL_PCD_ConnectCallback:
 592              	.LFB146:
1255:Drivers/STM32G4xx_HAL_Driver/Src/stm32g4xx_hal_pcd.c **** 
1256:Drivers/STM32G4xx_HAL_Driver/Src/stm32g4xx_hal_pcd.c **** /**
1257:Drivers/STM32G4xx_HAL_Driver/Src/stm32g4xx_hal_pcd.c ****   * @brief  Connection event callback.
1258:Drivers/STM32G4xx_HAL_Driver/Src/stm32g4xx_hal_pcd.c ****   * @param  hpcd PCD handle
1259:Drivers/STM32G4xx_HAL_Driver/Src/stm32g4xx_hal_pcd.c ****   * @retval None
1260:Drivers/STM32G4xx_HAL_Driver/Src/stm32g4xx_hal_pcd.c ****   */
1261:Drivers/STM32G4xx_HAL_Driver/Src/stm32g4xx_hal_pcd.c **** __weak void HAL_PCD_ConnectCallback(PCD_HandleTypeDef *hpcd)
1262:Drivers/STM32G4xx_HAL_Driver/Src/stm32g4xx_hal_pcd.c **** {
 593              		.loc 1 1262 0
 594              		.cfi_startproc
 595              		@ args = 0, pretend = 0, frame = 0
 596              		@ frame_needed = 0, uses_anonymous_args = 0
 597              		@ link register save eliminated.
 598              	.LVL46:
1263:Drivers/STM32G4xx_HAL_Driver/Src/stm32g4xx_hal_pcd.c ****   /* Prevent unused argument(s) compilation warning */
ARM GAS  /var/folders/17/j_dgbcc52q10y0jc3c_zbwd80000gn/T//cc40SoIA.s 			page 34


1264:Drivers/STM32G4xx_HAL_Driver/Src/stm32g4xx_hal_pcd.c ****   UNUSED(hpcd);
1265:Drivers/STM32G4xx_HAL_Driver/Src/stm32g4xx_hal_pcd.c **** 
1266:Drivers/STM32G4xx_HAL_Driver/Src/stm32g4xx_hal_pcd.c ****   /* NOTE : This function should not be modified, when the callback is needed,
1267:Drivers/STM32G4xx_HAL_Driver/Src/stm32g4xx_hal_pcd.c ****             the HAL_PCD_ConnectCallback could be implemented in the user file
1268:Drivers/STM32G4xx_HAL_Driver/Src/stm32g4xx_hal_pcd.c ****    */
1269:Drivers/STM32G4xx_HAL_Driver/Src/stm32g4xx_hal_pcd.c **** }
 599              		.loc 1 1269 0
 600 0000 7047     		bx	lr
 601              		.cfi_endproc
 602              	.LFE146:
 604              		.section	.text.HAL_PCD_DisconnectCallback,"ax",%progbits
 605              		.align	1
 606              		.weak	HAL_PCD_DisconnectCallback
 607              		.syntax unified
 608              		.thumb
 609              		.thumb_func
 610              		.fpu fpv5-sp-d16
 612              	HAL_PCD_DisconnectCallback:
 613              	.LFB147:
1270:Drivers/STM32G4xx_HAL_Driver/Src/stm32g4xx_hal_pcd.c **** 
1271:Drivers/STM32G4xx_HAL_Driver/Src/stm32g4xx_hal_pcd.c **** /**
1272:Drivers/STM32G4xx_HAL_Driver/Src/stm32g4xx_hal_pcd.c ****   * @brief  Disconnection event callback.
1273:Drivers/STM32G4xx_HAL_Driver/Src/stm32g4xx_hal_pcd.c ****   * @param  hpcd PCD handle
1274:Drivers/STM32G4xx_HAL_Driver/Src/stm32g4xx_hal_pcd.c ****   * @retval None
1275:Drivers/STM32G4xx_HAL_Driver/Src/stm32g4xx_hal_pcd.c ****   */
1276:Drivers/STM32G4xx_HAL_Driver/Src/stm32g4xx_hal_pcd.c **** __weak void HAL_PCD_DisconnectCallback(PCD_HandleTypeDef *hpcd)
1277:Drivers/STM32G4xx_HAL_Driver/Src/stm32g4xx_hal_pcd.c **** {
 614              		.loc 1 1277 0
 615              		.cfi_startproc
 616              		@ args = 0, pretend = 0, frame = 0
 617              		@ frame_needed = 0, uses_anonymous_args = 0
 618              		@ link register save eliminated.
 619              	.LVL47:
1278:Drivers/STM32G4xx_HAL_Driver/Src/stm32g4xx_hal_pcd.c ****   /* Prevent unused argument(s) compilation warning */
1279:Drivers/STM32G4xx_HAL_Driver/Src/stm32g4xx_hal_pcd.c ****   UNUSED(hpcd);
1280:Drivers/STM32G4xx_HAL_Driver/Src/stm32g4xx_hal_pcd.c **** 
1281:Drivers/STM32G4xx_HAL_Driver/Src/stm32g4xx_hal_pcd.c ****   /* NOTE : This function should not be modified, when the callback is needed,
1282:Drivers/STM32G4xx_HAL_Driver/Src/stm32g4xx_hal_pcd.c ****             the HAL_PCD_DisconnectCallback could be implemented in the user file
1283:Drivers/STM32G4xx_HAL_Driver/Src/stm32g4xx_hal_pcd.c ****    */
1284:Drivers/STM32G4xx_HAL_Driver/Src/stm32g4xx_hal_pcd.c **** }
 620              		.loc 1 1284 0
 621 0000 7047     		bx	lr
 622              		.cfi_endproc
 623              	.LFE147:
 625              		.section	.text.HAL_PCD_DevConnect,"ax",%progbits
 626              		.align	1
 627              		.global	HAL_PCD_DevConnect
 628              		.syntax unified
 629              		.thumb
 630              		.thumb_func
 631              		.fpu fpv5-sp-d16
 633              	HAL_PCD_DevConnect:
 634              	.LFB148:
1285:Drivers/STM32G4xx_HAL_Driver/Src/stm32g4xx_hal_pcd.c **** 
1286:Drivers/STM32G4xx_HAL_Driver/Src/stm32g4xx_hal_pcd.c **** /**
1287:Drivers/STM32G4xx_HAL_Driver/Src/stm32g4xx_hal_pcd.c ****   * @}
1288:Drivers/STM32G4xx_HAL_Driver/Src/stm32g4xx_hal_pcd.c ****   */
ARM GAS  /var/folders/17/j_dgbcc52q10y0jc3c_zbwd80000gn/T//cc40SoIA.s 			page 35


1289:Drivers/STM32G4xx_HAL_Driver/Src/stm32g4xx_hal_pcd.c **** 
1290:Drivers/STM32G4xx_HAL_Driver/Src/stm32g4xx_hal_pcd.c **** /** @defgroup PCD_Exported_Functions_Group3 Peripheral Control functions
1291:Drivers/STM32G4xx_HAL_Driver/Src/stm32g4xx_hal_pcd.c ****  *  @brief   management functions
1292:Drivers/STM32G4xx_HAL_Driver/Src/stm32g4xx_hal_pcd.c ****  *
1293:Drivers/STM32G4xx_HAL_Driver/Src/stm32g4xx_hal_pcd.c **** @verbatim
1294:Drivers/STM32G4xx_HAL_Driver/Src/stm32g4xx_hal_pcd.c ****  ===============================================================================
1295:Drivers/STM32G4xx_HAL_Driver/Src/stm32g4xx_hal_pcd.c ****                       ##### Peripheral Control functions #####
1296:Drivers/STM32G4xx_HAL_Driver/Src/stm32g4xx_hal_pcd.c ****  ===============================================================================
1297:Drivers/STM32G4xx_HAL_Driver/Src/stm32g4xx_hal_pcd.c ****     [..]
1298:Drivers/STM32G4xx_HAL_Driver/Src/stm32g4xx_hal_pcd.c ****     This subsection provides a set of functions allowing to control the PCD data
1299:Drivers/STM32G4xx_HAL_Driver/Src/stm32g4xx_hal_pcd.c ****     transfers.
1300:Drivers/STM32G4xx_HAL_Driver/Src/stm32g4xx_hal_pcd.c **** 
1301:Drivers/STM32G4xx_HAL_Driver/Src/stm32g4xx_hal_pcd.c **** @endverbatim
1302:Drivers/STM32G4xx_HAL_Driver/Src/stm32g4xx_hal_pcd.c ****   * @{
1303:Drivers/STM32G4xx_HAL_Driver/Src/stm32g4xx_hal_pcd.c ****   */
1304:Drivers/STM32G4xx_HAL_Driver/Src/stm32g4xx_hal_pcd.c **** 
1305:Drivers/STM32G4xx_HAL_Driver/Src/stm32g4xx_hal_pcd.c **** /**
1306:Drivers/STM32G4xx_HAL_Driver/Src/stm32g4xx_hal_pcd.c ****   * @brief  Connect the USB device
1307:Drivers/STM32G4xx_HAL_Driver/Src/stm32g4xx_hal_pcd.c ****   * @param  hpcd PCD handle
1308:Drivers/STM32G4xx_HAL_Driver/Src/stm32g4xx_hal_pcd.c ****   * @retval HAL status
1309:Drivers/STM32G4xx_HAL_Driver/Src/stm32g4xx_hal_pcd.c ****   */
1310:Drivers/STM32G4xx_HAL_Driver/Src/stm32g4xx_hal_pcd.c **** HAL_StatusTypeDef HAL_PCD_DevConnect(PCD_HandleTypeDef *hpcd)
1311:Drivers/STM32G4xx_HAL_Driver/Src/stm32g4xx_hal_pcd.c **** {
 635              		.loc 1 1311 0
 636              		.cfi_startproc
 637              		@ args = 0, pretend = 0, frame = 0
 638              		@ frame_needed = 0, uses_anonymous_args = 0
 639              	.LVL48:
1312:Drivers/STM32G4xx_HAL_Driver/Src/stm32g4xx_hal_pcd.c ****   __HAL_LOCK(hpcd);
 640              		.loc 1 1312 0
 641 0000 90F82832 		ldrb	r3, [r0, #552]	@ zero_extendqisi2
 642 0004 012B     		cmp	r3, #1
 643 0006 0BD0     		beq	.L52
1311:Drivers/STM32G4xx_HAL_Driver/Src/stm32g4xx_hal_pcd.c ****   __HAL_LOCK(hpcd);
 644              		.loc 1 1311 0 discriminator 2
 645 0008 10B5     		push	{r4, lr}
 646              		.cfi_def_cfa_offset 8
 647              		.cfi_offset 4, -8
 648              		.cfi_offset 14, -4
 649 000a 0446     		mov	r4, r0
 650              		.loc 1 1312 0 discriminator 2
 651 000c 0123     		movs	r3, #1
 652 000e 80F82832 		strb	r3, [r0, #552]
1313:Drivers/STM32G4xx_HAL_Driver/Src/stm32g4xx_hal_pcd.c ****   (void)USB_DevConnect(hpcd->Instance);
 653              		.loc 1 1313 0 discriminator 2
 654 0012 0068     		ldr	r0, [r0]
 655              	.LVL49:
 656 0014 FFF7FEFF 		bl	USB_DevConnect
 657              	.LVL50:
1314:Drivers/STM32G4xx_HAL_Driver/Src/stm32g4xx_hal_pcd.c ****   __HAL_UNLOCK(hpcd);
 658              		.loc 1 1314 0 discriminator 2
 659 0018 0020     		movs	r0, #0
 660 001a 84F82802 		strb	r0, [r4, #552]
1315:Drivers/STM32G4xx_HAL_Driver/Src/stm32g4xx_hal_pcd.c ****   return HAL_OK;
1316:Drivers/STM32G4xx_HAL_Driver/Src/stm32g4xx_hal_pcd.c **** }
 661              		.loc 1 1316 0 discriminator 2
 662 001e 10BD     		pop	{r4, pc}
ARM GAS  /var/folders/17/j_dgbcc52q10y0jc3c_zbwd80000gn/T//cc40SoIA.s 			page 36


 663              	.LVL51:
 664              	.L52:
 665              		.cfi_def_cfa_offset 0
 666              		.cfi_restore 4
 667              		.cfi_restore 14
1312:Drivers/STM32G4xx_HAL_Driver/Src/stm32g4xx_hal_pcd.c ****   (void)USB_DevConnect(hpcd->Instance);
 668              		.loc 1 1312 0
 669 0020 0220     		movs	r0, #2
 670              	.LVL52:
 671              		.loc 1 1316 0
 672 0022 7047     		bx	lr
 673              		.cfi_endproc
 674              	.LFE148:
 676              		.section	.text.HAL_PCD_DevDisconnect,"ax",%progbits
 677              		.align	1
 678              		.global	HAL_PCD_DevDisconnect
 679              		.syntax unified
 680              		.thumb
 681              		.thumb_func
 682              		.fpu fpv5-sp-d16
 684              	HAL_PCD_DevDisconnect:
 685              	.LFB149:
1317:Drivers/STM32G4xx_HAL_Driver/Src/stm32g4xx_hal_pcd.c **** 
1318:Drivers/STM32G4xx_HAL_Driver/Src/stm32g4xx_hal_pcd.c **** /**
1319:Drivers/STM32G4xx_HAL_Driver/Src/stm32g4xx_hal_pcd.c ****   * @brief  Disconnect the USB device.
1320:Drivers/STM32G4xx_HAL_Driver/Src/stm32g4xx_hal_pcd.c ****   * @param  hpcd PCD handle
1321:Drivers/STM32G4xx_HAL_Driver/Src/stm32g4xx_hal_pcd.c ****   * @retval HAL status
1322:Drivers/STM32G4xx_HAL_Driver/Src/stm32g4xx_hal_pcd.c ****   */
1323:Drivers/STM32G4xx_HAL_Driver/Src/stm32g4xx_hal_pcd.c **** HAL_StatusTypeDef HAL_PCD_DevDisconnect(PCD_HandleTypeDef *hpcd)
1324:Drivers/STM32G4xx_HAL_Driver/Src/stm32g4xx_hal_pcd.c **** {
 686              		.loc 1 1324 0
 687              		.cfi_startproc
 688              		@ args = 0, pretend = 0, frame = 0
 689              		@ frame_needed = 0, uses_anonymous_args = 0
 690              	.LVL53:
1325:Drivers/STM32G4xx_HAL_Driver/Src/stm32g4xx_hal_pcd.c ****   __HAL_LOCK(hpcd);
 691              		.loc 1 1325 0
 692 0000 90F82832 		ldrb	r3, [r0, #552]	@ zero_extendqisi2
 693 0004 012B     		cmp	r3, #1
 694 0006 0BD0     		beq	.L59
1324:Drivers/STM32G4xx_HAL_Driver/Src/stm32g4xx_hal_pcd.c ****   __HAL_LOCK(hpcd);
 695              		.loc 1 1324 0 discriminator 2
 696 0008 10B5     		push	{r4, lr}
 697              		.cfi_def_cfa_offset 8
 698              		.cfi_offset 4, -8
 699              		.cfi_offset 14, -4
 700 000a 0446     		mov	r4, r0
 701              		.loc 1 1325 0 discriminator 2
 702 000c 0123     		movs	r3, #1
 703 000e 80F82832 		strb	r3, [r0, #552]
1326:Drivers/STM32G4xx_HAL_Driver/Src/stm32g4xx_hal_pcd.c ****   (void)USB_DevDisconnect(hpcd->Instance);
 704              		.loc 1 1326 0 discriminator 2
 705 0012 0068     		ldr	r0, [r0]
 706              	.LVL54:
 707 0014 FFF7FEFF 		bl	USB_DevDisconnect
 708              	.LVL55:
1327:Drivers/STM32G4xx_HAL_Driver/Src/stm32g4xx_hal_pcd.c ****   __HAL_UNLOCK(hpcd);
ARM GAS  /var/folders/17/j_dgbcc52q10y0jc3c_zbwd80000gn/T//cc40SoIA.s 			page 37


 709              		.loc 1 1327 0 discriminator 2
 710 0018 0020     		movs	r0, #0
 711 001a 84F82802 		strb	r0, [r4, #552]
1328:Drivers/STM32G4xx_HAL_Driver/Src/stm32g4xx_hal_pcd.c ****   return HAL_OK;
1329:Drivers/STM32G4xx_HAL_Driver/Src/stm32g4xx_hal_pcd.c **** }
 712              		.loc 1 1329 0 discriminator 2
 713 001e 10BD     		pop	{r4, pc}
 714              	.LVL56:
 715              	.L59:
 716              		.cfi_def_cfa_offset 0
 717              		.cfi_restore 4
 718              		.cfi_restore 14
1325:Drivers/STM32G4xx_HAL_Driver/Src/stm32g4xx_hal_pcd.c ****   (void)USB_DevDisconnect(hpcd->Instance);
 719              		.loc 1 1325 0
 720 0020 0220     		movs	r0, #2
 721              	.LVL57:
 722              		.loc 1 1329 0
 723 0022 7047     		bx	lr
 724              		.cfi_endproc
 725              	.LFE149:
 727              		.section	.text.HAL_PCD_SetAddress,"ax",%progbits
 728              		.align	1
 729              		.global	HAL_PCD_SetAddress
 730              		.syntax unified
 731              		.thumb
 732              		.thumb_func
 733              		.fpu fpv5-sp-d16
 735              	HAL_PCD_SetAddress:
 736              	.LFB150:
1330:Drivers/STM32G4xx_HAL_Driver/Src/stm32g4xx_hal_pcd.c **** 
1331:Drivers/STM32G4xx_HAL_Driver/Src/stm32g4xx_hal_pcd.c **** /**
1332:Drivers/STM32G4xx_HAL_Driver/Src/stm32g4xx_hal_pcd.c ****   * @brief  Set the USB Device address.
1333:Drivers/STM32G4xx_HAL_Driver/Src/stm32g4xx_hal_pcd.c ****   * @param  hpcd PCD handle
1334:Drivers/STM32G4xx_HAL_Driver/Src/stm32g4xx_hal_pcd.c ****   * @param  address new device address
1335:Drivers/STM32G4xx_HAL_Driver/Src/stm32g4xx_hal_pcd.c ****   * @retval HAL status
1336:Drivers/STM32G4xx_HAL_Driver/Src/stm32g4xx_hal_pcd.c ****   */
1337:Drivers/STM32G4xx_HAL_Driver/Src/stm32g4xx_hal_pcd.c **** HAL_StatusTypeDef HAL_PCD_SetAddress(PCD_HandleTypeDef *hpcd, uint8_t address)
1338:Drivers/STM32G4xx_HAL_Driver/Src/stm32g4xx_hal_pcd.c **** {
 737              		.loc 1 1338 0
 738              		.cfi_startproc
 739              		@ args = 0, pretend = 0, frame = 0
 740              		@ frame_needed = 0, uses_anonymous_args = 0
 741              	.LVL58:
1339:Drivers/STM32G4xx_HAL_Driver/Src/stm32g4xx_hal_pcd.c ****   __HAL_LOCK(hpcd);
 742              		.loc 1 1339 0
 743 0000 90F82832 		ldrb	r3, [r0, #552]	@ zero_extendqisi2
 744 0004 012B     		cmp	r3, #1
 745 0006 0DD0     		beq	.L66
1338:Drivers/STM32G4xx_HAL_Driver/Src/stm32g4xx_hal_pcd.c ****   __HAL_LOCK(hpcd);
 746              		.loc 1 1338 0 discriminator 2
 747 0008 10B5     		push	{r4, lr}
 748              		.cfi_def_cfa_offset 8
 749              		.cfi_offset 4, -8
 750              		.cfi_offset 14, -4
 751 000a 0446     		mov	r4, r0
 752              		.loc 1 1339 0 discriminator 2
 753 000c 0123     		movs	r3, #1
ARM GAS  /var/folders/17/j_dgbcc52q10y0jc3c_zbwd80000gn/T//cc40SoIA.s 			page 38


 754 000e 80F82832 		strb	r3, [r0, #552]
1340:Drivers/STM32G4xx_HAL_Driver/Src/stm32g4xx_hal_pcd.c ****   hpcd->USB_Address = address;
 755              		.loc 1 1340 0 discriminator 2
 756 0012 80F82410 		strb	r1, [r0, #36]
1341:Drivers/STM32G4xx_HAL_Driver/Src/stm32g4xx_hal_pcd.c ****   (void)USB_SetDevAddress(hpcd->Instance, address);
 757              		.loc 1 1341 0 discriminator 2
 758 0016 0068     		ldr	r0, [r0]
 759              	.LVL59:
 760 0018 FFF7FEFF 		bl	USB_SetDevAddress
 761              	.LVL60:
1342:Drivers/STM32G4xx_HAL_Driver/Src/stm32g4xx_hal_pcd.c ****   __HAL_UNLOCK(hpcd);
 762              		.loc 1 1342 0 discriminator 2
 763 001c 0020     		movs	r0, #0
 764 001e 84F82802 		strb	r0, [r4, #552]
1343:Drivers/STM32G4xx_HAL_Driver/Src/stm32g4xx_hal_pcd.c ****   return HAL_OK;
1344:Drivers/STM32G4xx_HAL_Driver/Src/stm32g4xx_hal_pcd.c **** }
 765              		.loc 1 1344 0 discriminator 2
 766 0022 10BD     		pop	{r4, pc}
 767              	.LVL61:
 768              	.L66:
 769              		.cfi_def_cfa_offset 0
 770              		.cfi_restore 4
 771              		.cfi_restore 14
1339:Drivers/STM32G4xx_HAL_Driver/Src/stm32g4xx_hal_pcd.c ****   hpcd->USB_Address = address;
 772              		.loc 1 1339 0
 773 0024 0220     		movs	r0, #2
 774              	.LVL62:
 775              		.loc 1 1344 0
 776 0026 7047     		bx	lr
 777              		.cfi_endproc
 778              	.LFE150:
 780              		.section	.text.HAL_PCD_EP_Open,"ax",%progbits
 781              		.align	1
 782              		.global	HAL_PCD_EP_Open
 783              		.syntax unified
 784              		.thumb
 785              		.thumb_func
 786              		.fpu fpv5-sp-d16
 788              	HAL_PCD_EP_Open:
 789              	.LFB151:
1345:Drivers/STM32G4xx_HAL_Driver/Src/stm32g4xx_hal_pcd.c **** /**
1346:Drivers/STM32G4xx_HAL_Driver/Src/stm32g4xx_hal_pcd.c ****   * @brief  Open and configure an endpoint.
1347:Drivers/STM32G4xx_HAL_Driver/Src/stm32g4xx_hal_pcd.c ****   * @param  hpcd PCD handle
1348:Drivers/STM32G4xx_HAL_Driver/Src/stm32g4xx_hal_pcd.c ****   * @param  ep_addr endpoint address
1349:Drivers/STM32G4xx_HAL_Driver/Src/stm32g4xx_hal_pcd.c ****   * @param  ep_mps endpoint max packet size
1350:Drivers/STM32G4xx_HAL_Driver/Src/stm32g4xx_hal_pcd.c ****   * @param  ep_type endpoint type
1351:Drivers/STM32G4xx_HAL_Driver/Src/stm32g4xx_hal_pcd.c ****   * @retval HAL status
1352:Drivers/STM32G4xx_HAL_Driver/Src/stm32g4xx_hal_pcd.c ****   */
1353:Drivers/STM32G4xx_HAL_Driver/Src/stm32g4xx_hal_pcd.c **** HAL_StatusTypeDef HAL_PCD_EP_Open(PCD_HandleTypeDef *hpcd, uint8_t ep_addr, uint16_t ep_mps, uint8_
1354:Drivers/STM32G4xx_HAL_Driver/Src/stm32g4xx_hal_pcd.c **** {
 790              		.loc 1 1354 0
 791              		.cfi_startproc
 792              		@ args = 0, pretend = 0, frame = 0
 793              		@ frame_needed = 0, uses_anonymous_args = 0
 794              	.LVL63:
 795 0000 70B5     		push	{r4, r5, r6, lr}
 796              		.cfi_def_cfa_offset 16
ARM GAS  /var/folders/17/j_dgbcc52q10y0jc3c_zbwd80000gn/T//cc40SoIA.s 			page 39


 797              		.cfi_offset 4, -16
 798              		.cfi_offset 5, -12
 799              		.cfi_offset 6, -8
 800              		.cfi_offset 14, -4
 801              	.LVL64:
1355:Drivers/STM32G4xx_HAL_Driver/Src/stm32g4xx_hal_pcd.c ****   HAL_StatusTypeDef  ret = HAL_OK;
1356:Drivers/STM32G4xx_HAL_Driver/Src/stm32g4xx_hal_pcd.c ****   PCD_EPTypeDef *ep;
1357:Drivers/STM32G4xx_HAL_Driver/Src/stm32g4xx_hal_pcd.c **** 
1358:Drivers/STM32G4xx_HAL_Driver/Src/stm32g4xx_hal_pcd.c ****   if ((ep_addr & 0x80U) == 0x80U)
 802              		.loc 1 1358 0
 803 0002 11F0800F 		tst	r1, #128
 804 0006 23D1     		bne	.L79
1359:Drivers/STM32G4xx_HAL_Driver/Src/stm32g4xx_hal_pcd.c ****   {
1360:Drivers/STM32G4xx_HAL_Driver/Src/stm32g4xx_hal_pcd.c ****     ep = &hpcd->IN_ep[ep_addr & EP_ADDR_MSK];
1361:Drivers/STM32G4xx_HAL_Driver/Src/stm32g4xx_hal_pcd.c ****     ep->is_in = 1U;
1362:Drivers/STM32G4xx_HAL_Driver/Src/stm32g4xx_hal_pcd.c ****   }
1363:Drivers/STM32G4xx_HAL_Driver/Src/stm32g4xx_hal_pcd.c ****   else
1364:Drivers/STM32G4xx_HAL_Driver/Src/stm32g4xx_hal_pcd.c ****   {
1365:Drivers/STM32G4xx_HAL_Driver/Src/stm32g4xx_hal_pcd.c ****     ep = &hpcd->OUT_ep[ep_addr & EP_ADDR_MSK];
 805              		.loc 1 1365 0
 806 0008 01F00705 		and	r5, r1, #7
 807 000c 6D01     		lsls	r5, r5, #5
 808 000e 05F59474 		add	r4, r5, #296
 809 0012 0444     		add	r4, r4, r0
 810              	.LVL65:
1366:Drivers/STM32G4xx_HAL_Driver/Src/stm32g4xx_hal_pcd.c ****     ep->is_in = 0U;
 811              		.loc 1 1366 0
 812 0014 0544     		add	r5, r5, r0
 813 0016 0026     		movs	r6, #0
 814 0018 85F82961 		strb	r6, [r5, #297]
 815              	.L73:
1367:Drivers/STM32G4xx_HAL_Driver/Src/stm32g4xx_hal_pcd.c ****   }
1368:Drivers/STM32G4xx_HAL_Driver/Src/stm32g4xx_hal_pcd.c **** 
1369:Drivers/STM32G4xx_HAL_Driver/Src/stm32g4xx_hal_pcd.c ****   ep->num = ep_addr & EP_ADDR_MSK;
 816              		.loc 1 1369 0
 817 001c 01F00701 		and	r1, r1, #7
 818              	.LVL66:
 819 0020 2170     		strb	r1, [r4]
1370:Drivers/STM32G4xx_HAL_Driver/Src/stm32g4xx_hal_pcd.c ****   ep->maxpacket = ep_mps;
 820              		.loc 1 1370 0
 821 0022 2261     		str	r2, [r4, #16]
1371:Drivers/STM32G4xx_HAL_Driver/Src/stm32g4xx_hal_pcd.c ****   ep->type = ep_type;
 822              		.loc 1 1371 0
 823 0024 E370     		strb	r3, [r4, #3]
1372:Drivers/STM32G4xx_HAL_Driver/Src/stm32g4xx_hal_pcd.c **** 
1373:Drivers/STM32G4xx_HAL_Driver/Src/stm32g4xx_hal_pcd.c ****   if (ep->is_in != 0U)
 824              		.loc 1 1373 0
 825 0026 6278     		ldrb	r2, [r4, #1]	@ zero_extendqisi2
 826              	.LVL67:
 827 0028 02B1     		cbz	r2, .L74
1374:Drivers/STM32G4xx_HAL_Driver/Src/stm32g4xx_hal_pcd.c ****   {
1375:Drivers/STM32G4xx_HAL_Driver/Src/stm32g4xx_hal_pcd.c ****     /* Assign a Tx FIFO */
1376:Drivers/STM32G4xx_HAL_Driver/Src/stm32g4xx_hal_pcd.c ****     ep->tx_fifo_num = ep->num;
 828              		.loc 1 1376 0
 829 002a E181     		strh	r1, [r4, #14]	@ movhi
 830              	.L74:
1377:Drivers/STM32G4xx_HAL_Driver/Src/stm32g4xx_hal_pcd.c ****   }
ARM GAS  /var/folders/17/j_dgbcc52q10y0jc3c_zbwd80000gn/T//cc40SoIA.s 			page 40


1378:Drivers/STM32G4xx_HAL_Driver/Src/stm32g4xx_hal_pcd.c ****   /* Set initial data PID. */
1379:Drivers/STM32G4xx_HAL_Driver/Src/stm32g4xx_hal_pcd.c ****   if (ep_type == EP_TYPE_BULK)
 831              		.loc 1 1379 0
 832 002c 022B     		cmp	r3, #2
 833 002e 1AD0     		beq	.L80
 834              	.LVL68:
 835              	.L75:
1380:Drivers/STM32G4xx_HAL_Driver/Src/stm32g4xx_hal_pcd.c ****   {
1381:Drivers/STM32G4xx_HAL_Driver/Src/stm32g4xx_hal_pcd.c ****     ep->data_pid_start = 0U;
1382:Drivers/STM32G4xx_HAL_Driver/Src/stm32g4xx_hal_pcd.c ****   }
1383:Drivers/STM32G4xx_HAL_Driver/Src/stm32g4xx_hal_pcd.c **** 
1384:Drivers/STM32G4xx_HAL_Driver/Src/stm32g4xx_hal_pcd.c ****   __HAL_LOCK(hpcd);
 836              		.loc 1 1384 0
 837 0030 90F82832 		ldrb	r3, [r0, #552]	@ zero_extendqisi2
 838 0034 012B     		cmp	r3, #1
 839 0036 19D0     		beq	.L77
 840 0038 0546     		mov	r5, r0
 841              		.loc 1 1384 0 is_stmt 0 discriminator 2
 842 003a 0123     		movs	r3, #1
 843 003c 80F82832 		strb	r3, [r0, #552]
 844              	.LVL69:
1385:Drivers/STM32G4xx_HAL_Driver/Src/stm32g4xx_hal_pcd.c ****   (void)USB_ActivateEndpoint(hpcd->Instance, ep);
 845              		.loc 1 1385 0 is_stmt 1 discriminator 2
 846 0040 2146     		mov	r1, r4
 847 0042 0068     		ldr	r0, [r0]
 848              	.LVL70:
 849 0044 FFF7FEFF 		bl	USB_ActivateEndpoint
 850              	.LVL71:
1386:Drivers/STM32G4xx_HAL_Driver/Src/stm32g4xx_hal_pcd.c ****   __HAL_UNLOCK(hpcd);
 851              		.loc 1 1386 0 discriminator 2
 852 0048 0020     		movs	r0, #0
 853 004a 85F82802 		strb	r0, [r5, #552]
 854              	.LVL72:
 855              	.L76:
1387:Drivers/STM32G4xx_HAL_Driver/Src/stm32g4xx_hal_pcd.c **** 
1388:Drivers/STM32G4xx_HAL_Driver/Src/stm32g4xx_hal_pcd.c ****   return ret;
1389:Drivers/STM32G4xx_HAL_Driver/Src/stm32g4xx_hal_pcd.c **** }
 856              		.loc 1 1389 0
 857 004e 70BD     		pop	{r4, r5, r6, pc}
 858              	.LVL73:
 859              	.L79:
1360:Drivers/STM32G4xx_HAL_Driver/Src/stm32g4xx_hal_pcd.c ****     ep->is_in = 1U;
 860              		.loc 1 1360 0
 861 0050 01F00705 		and	r5, r1, #7
 862 0054 6D01     		lsls	r5, r5, #5
 863 0056 05F12804 		add	r4, r5, #40
 864 005a 0444     		add	r4, r4, r0
 865              	.LVL74:
1361:Drivers/STM32G4xx_HAL_Driver/Src/stm32g4xx_hal_pcd.c ****   }
 866              		.loc 1 1361 0
 867 005c 0544     		add	r5, r5, r0
 868 005e 0126     		movs	r6, #1
 869 0060 85F82960 		strb	r6, [r5, #41]
 870 0064 DAE7     		b	.L73
 871              	.LVL75:
 872              	.L80:
1381:Drivers/STM32G4xx_HAL_Driver/Src/stm32g4xx_hal_pcd.c ****   }
ARM GAS  /var/folders/17/j_dgbcc52q10y0jc3c_zbwd80000gn/T//cc40SoIA.s 			page 41


 873              		.loc 1 1381 0
 874 0066 0023     		movs	r3, #0
 875              	.LVL76:
 876 0068 2371     		strb	r3, [r4, #4]
 877 006a E1E7     		b	.L75
 878              	.L77:
1384:Drivers/STM32G4xx_HAL_Driver/Src/stm32g4xx_hal_pcd.c ****   (void)USB_ActivateEndpoint(hpcd->Instance, ep);
 879              		.loc 1 1384 0
 880 006c 0220     		movs	r0, #2
 881              	.LVL77:
 882 006e EEE7     		b	.L76
 883              		.cfi_endproc
 884              	.LFE151:
 886              		.section	.text.HAL_PCD_EP_Close,"ax",%progbits
 887              		.align	1
 888              		.global	HAL_PCD_EP_Close
 889              		.syntax unified
 890              		.thumb
 891              		.thumb_func
 892              		.fpu fpv5-sp-d16
 894              	HAL_PCD_EP_Close:
 895              	.LFB152:
1390:Drivers/STM32G4xx_HAL_Driver/Src/stm32g4xx_hal_pcd.c **** 
1391:Drivers/STM32G4xx_HAL_Driver/Src/stm32g4xx_hal_pcd.c **** /**
1392:Drivers/STM32G4xx_HAL_Driver/Src/stm32g4xx_hal_pcd.c ****   * @brief  Deactivate an endpoint.
1393:Drivers/STM32G4xx_HAL_Driver/Src/stm32g4xx_hal_pcd.c ****   * @param  hpcd PCD handle
1394:Drivers/STM32G4xx_HAL_Driver/Src/stm32g4xx_hal_pcd.c ****   * @param  ep_addr endpoint address
1395:Drivers/STM32G4xx_HAL_Driver/Src/stm32g4xx_hal_pcd.c ****   * @retval HAL status
1396:Drivers/STM32G4xx_HAL_Driver/Src/stm32g4xx_hal_pcd.c ****   */
1397:Drivers/STM32G4xx_HAL_Driver/Src/stm32g4xx_hal_pcd.c **** HAL_StatusTypeDef HAL_PCD_EP_Close(PCD_HandleTypeDef *hpcd, uint8_t ep_addr)
1398:Drivers/STM32G4xx_HAL_Driver/Src/stm32g4xx_hal_pcd.c **** {
 896              		.loc 1 1398 0
 897              		.cfi_startproc
 898              		@ args = 0, pretend = 0, frame = 0
 899              		@ frame_needed = 0, uses_anonymous_args = 0
 900              	.LVL78:
 901 0000 10B5     		push	{r4, lr}
 902              		.cfi_def_cfa_offset 8
 903              		.cfi_offset 4, -8
 904              		.cfi_offset 14, -4
1399:Drivers/STM32G4xx_HAL_Driver/Src/stm32g4xx_hal_pcd.c ****   PCD_EPTypeDef *ep;
1400:Drivers/STM32G4xx_HAL_Driver/Src/stm32g4xx_hal_pcd.c **** 
1401:Drivers/STM32G4xx_HAL_Driver/Src/stm32g4xx_hal_pcd.c ****   if ((ep_addr & 0x80U) == 0x80U)
 905              		.loc 1 1401 0
 906 0002 11F0800F 		tst	r1, #128
 907 0006 1CD1     		bne	.L87
1402:Drivers/STM32G4xx_HAL_Driver/Src/stm32g4xx_hal_pcd.c ****   {
1403:Drivers/STM32G4xx_HAL_Driver/Src/stm32g4xx_hal_pcd.c ****     ep = &hpcd->IN_ep[ep_addr & EP_ADDR_MSK];
1404:Drivers/STM32G4xx_HAL_Driver/Src/stm32g4xx_hal_pcd.c ****     ep->is_in = 1U;
1405:Drivers/STM32G4xx_HAL_Driver/Src/stm32g4xx_hal_pcd.c ****   }
1406:Drivers/STM32G4xx_HAL_Driver/Src/stm32g4xx_hal_pcd.c ****   else
1407:Drivers/STM32G4xx_HAL_Driver/Src/stm32g4xx_hal_pcd.c ****   {
1408:Drivers/STM32G4xx_HAL_Driver/Src/stm32g4xx_hal_pcd.c ****     ep = &hpcd->OUT_ep[ep_addr & EP_ADDR_MSK];
 908              		.loc 1 1408 0
 909 0008 01F00703 		and	r3, r1, #7
 910 000c 5B01     		lsls	r3, r3, #5
 911 000e 03F59472 		add	r2, r3, #296
ARM GAS  /var/folders/17/j_dgbcc52q10y0jc3c_zbwd80000gn/T//cc40SoIA.s 			page 42


 912 0012 0244     		add	r2, r2, r0
 913              	.LVL79:
1409:Drivers/STM32G4xx_HAL_Driver/Src/stm32g4xx_hal_pcd.c ****     ep->is_in = 0U;
 914              		.loc 1 1409 0
 915 0014 0344     		add	r3, r3, r0
 916 0016 0024     		movs	r4, #0
 917 0018 83F82941 		strb	r4, [r3, #297]
 918              	.L83:
1410:Drivers/STM32G4xx_HAL_Driver/Src/stm32g4xx_hal_pcd.c ****   }
1411:Drivers/STM32G4xx_HAL_Driver/Src/stm32g4xx_hal_pcd.c ****   ep->num   = ep_addr & EP_ADDR_MSK;
 919              		.loc 1 1411 0
 920 001c 01F00703 		and	r3, r1, #7
 921 0020 1370     		strb	r3, [r2]
1412:Drivers/STM32G4xx_HAL_Driver/Src/stm32g4xx_hal_pcd.c **** 
1413:Drivers/STM32G4xx_HAL_Driver/Src/stm32g4xx_hal_pcd.c ****   __HAL_LOCK(hpcd);
 922              		.loc 1 1413 0
 923 0022 90F82832 		ldrb	r3, [r0, #552]	@ zero_extendqisi2
 924 0026 012B     		cmp	r3, #1
 925 0028 16D0     		beq	.L85
 926 002a 0446     		mov	r4, r0
 927              		.loc 1 1413 0 is_stmt 0 discriminator 2
 928 002c 0123     		movs	r3, #1
 929 002e 80F82832 		strb	r3, [r0, #552]
1414:Drivers/STM32G4xx_HAL_Driver/Src/stm32g4xx_hal_pcd.c ****   (void)USB_DeactivateEndpoint(hpcd->Instance, ep);
 930              		.loc 1 1414 0 is_stmt 1 discriminator 2
 931 0032 1146     		mov	r1, r2
 932              	.LVL80:
 933 0034 0068     		ldr	r0, [r0]
 934              	.LVL81:
 935 0036 FFF7FEFF 		bl	USB_DeactivateEndpoint
 936              	.LVL82:
1415:Drivers/STM32G4xx_HAL_Driver/Src/stm32g4xx_hal_pcd.c ****   __HAL_UNLOCK(hpcd);
 937              		.loc 1 1415 0 discriminator 2
 938 003a 0020     		movs	r0, #0
 939 003c 84F82802 		strb	r0, [r4, #552]
 940              	.LVL83:
 941              	.L84:
1416:Drivers/STM32G4xx_HAL_Driver/Src/stm32g4xx_hal_pcd.c ****   return HAL_OK;
1417:Drivers/STM32G4xx_HAL_Driver/Src/stm32g4xx_hal_pcd.c **** }
 942              		.loc 1 1417 0
 943 0040 10BD     		pop	{r4, pc}
 944              	.LVL84:
 945              	.L87:
1403:Drivers/STM32G4xx_HAL_Driver/Src/stm32g4xx_hal_pcd.c ****     ep->is_in = 1U;
 946              		.loc 1 1403 0
 947 0042 01F00703 		and	r3, r1, #7
 948 0046 5B01     		lsls	r3, r3, #5
 949 0048 03F12802 		add	r2, r3, #40
 950 004c 0244     		add	r2, r2, r0
 951              	.LVL85:
1404:Drivers/STM32G4xx_HAL_Driver/Src/stm32g4xx_hal_pcd.c ****   }
 952              		.loc 1 1404 0
 953 004e 0344     		add	r3, r3, r0
 954 0050 0124     		movs	r4, #1
 955 0052 83F82940 		strb	r4, [r3, #41]
 956 0056 E1E7     		b	.L83
 957              	.L85:
ARM GAS  /var/folders/17/j_dgbcc52q10y0jc3c_zbwd80000gn/T//cc40SoIA.s 			page 43


1413:Drivers/STM32G4xx_HAL_Driver/Src/stm32g4xx_hal_pcd.c ****   (void)USB_DeactivateEndpoint(hpcd->Instance, ep);
 958              		.loc 1 1413 0
 959 0058 0220     		movs	r0, #2
 960              	.LVL86:
 961 005a F1E7     		b	.L84
 962              		.cfi_endproc
 963              	.LFE152:
 965              		.section	.text.HAL_PCD_EP_Receive,"ax",%progbits
 966              		.align	1
 967              		.global	HAL_PCD_EP_Receive
 968              		.syntax unified
 969              		.thumb
 970              		.thumb_func
 971              		.fpu fpv5-sp-d16
 973              	HAL_PCD_EP_Receive:
 974              	.LFB153:
1418:Drivers/STM32G4xx_HAL_Driver/Src/stm32g4xx_hal_pcd.c **** 
1419:Drivers/STM32G4xx_HAL_Driver/Src/stm32g4xx_hal_pcd.c **** 
1420:Drivers/STM32G4xx_HAL_Driver/Src/stm32g4xx_hal_pcd.c **** /**
1421:Drivers/STM32G4xx_HAL_Driver/Src/stm32g4xx_hal_pcd.c ****   * @brief  Receive an amount of data.
1422:Drivers/STM32G4xx_HAL_Driver/Src/stm32g4xx_hal_pcd.c ****   * @param  hpcd PCD handle
1423:Drivers/STM32G4xx_HAL_Driver/Src/stm32g4xx_hal_pcd.c ****   * @param  ep_addr endpoint address
1424:Drivers/STM32G4xx_HAL_Driver/Src/stm32g4xx_hal_pcd.c ****   * @param  pBuf pointer to the reception buffer
1425:Drivers/STM32G4xx_HAL_Driver/Src/stm32g4xx_hal_pcd.c ****   * @param  len amount of data to be received
1426:Drivers/STM32G4xx_HAL_Driver/Src/stm32g4xx_hal_pcd.c ****   * @retval HAL status
1427:Drivers/STM32G4xx_HAL_Driver/Src/stm32g4xx_hal_pcd.c ****   */
1428:Drivers/STM32G4xx_HAL_Driver/Src/stm32g4xx_hal_pcd.c **** HAL_StatusTypeDef HAL_PCD_EP_Receive(PCD_HandleTypeDef *hpcd, uint8_t ep_addr, uint8_t *pBuf, uint3
1429:Drivers/STM32G4xx_HAL_Driver/Src/stm32g4xx_hal_pcd.c **** {
 975              		.loc 1 1429 0
 976              		.cfi_startproc
 977              		@ args = 0, pretend = 0, frame = 0
 978              		@ frame_needed = 0, uses_anonymous_args = 0
 979              	.LVL87:
 980 0000 70B5     		push	{r4, r5, r6, lr}
 981              		.cfi_def_cfa_offset 16
 982              		.cfi_offset 4, -16
 983              		.cfi_offset 5, -12
 984              		.cfi_offset 6, -8
 985              		.cfi_offset 14, -4
 986 0002 01F00705 		and	r5, r1, #7
1430:Drivers/STM32G4xx_HAL_Driver/Src/stm32g4xx_hal_pcd.c ****   PCD_EPTypeDef *ep;
1431:Drivers/STM32G4xx_HAL_Driver/Src/stm32g4xx_hal_pcd.c **** 
1432:Drivers/STM32G4xx_HAL_Driver/Src/stm32g4xx_hal_pcd.c ****   ep = &hpcd->OUT_ep[ep_addr & EP_ADDR_MSK];
 987              		.loc 1 1432 0
 988 0006 6C01     		lsls	r4, r5, #5
 989 0008 04F59471 		add	r1, r4, #296
 990              	.LVL88:
 991 000c 0144     		add	r1, r1, r0
 992              	.LVL89:
1433:Drivers/STM32G4xx_HAL_Driver/Src/stm32g4xx_hal_pcd.c **** 
1434:Drivers/STM32G4xx_HAL_Driver/Src/stm32g4xx_hal_pcd.c ****   /*setup and start the Xfer */
1435:Drivers/STM32G4xx_HAL_Driver/Src/stm32g4xx_hal_pcd.c ****   ep->xfer_buff = pBuf;
 993              		.loc 1 1435 0
 994 000e 0444     		add	r4, r4, r0
 995 0010 C4F83C21 		str	r2, [r4, #316]
1436:Drivers/STM32G4xx_HAL_Driver/Src/stm32g4xx_hal_pcd.c ****   ep->xfer_len = len;
 996              		.loc 1 1436 0
ARM GAS  /var/folders/17/j_dgbcc52q10y0jc3c_zbwd80000gn/T//cc40SoIA.s 			page 44


 997 0014 05F10A02 		add	r2, r5, #10
 998              	.LVL90:
 999 0018 5201     		lsls	r2, r2, #5
 1000 001a 8618     		adds	r6, r0, r2
 1001 001c 8350     		str	r3, [r0, r2]
 1002              	.LVL91:
1437:Drivers/STM32G4xx_HAL_Driver/Src/stm32g4xx_hal_pcd.c ****   ep->xfer_count = 0U;
 1003              		.loc 1 1437 0
 1004 001e 0023     		movs	r3, #0
 1005              	.LVL92:
 1006 0020 7360     		str	r3, [r6, #4]
1438:Drivers/STM32G4xx_HAL_Driver/Src/stm32g4xx_hal_pcd.c ****   ep->is_in = 0U;
 1007              		.loc 1 1438 0
 1008 0022 84F82931 		strb	r3, [r4, #297]
 1009              	.LVL93:
1439:Drivers/STM32G4xx_HAL_Driver/Src/stm32g4xx_hal_pcd.c ****   ep->num = ep_addr & EP_ADDR_MSK;
 1010              		.loc 1 1439 0
 1011 0026 84F82851 		strb	r5, [r4, #296]
1440:Drivers/STM32G4xx_HAL_Driver/Src/stm32g4xx_hal_pcd.c **** 
1441:Drivers/STM32G4xx_HAL_Driver/Src/stm32g4xx_hal_pcd.c ****   if ((ep_addr & EP_ADDR_MSK) == 0U)
 1012              		.loc 1 1441 0
 1013 002a 25B1     		cbz	r5, .L92
1442:Drivers/STM32G4xx_HAL_Driver/Src/stm32g4xx_hal_pcd.c ****   {
1443:Drivers/STM32G4xx_HAL_Driver/Src/stm32g4xx_hal_pcd.c ****     (void)USB_EP0StartXfer(hpcd->Instance, ep);
1444:Drivers/STM32G4xx_HAL_Driver/Src/stm32g4xx_hal_pcd.c ****   }
1445:Drivers/STM32G4xx_HAL_Driver/Src/stm32g4xx_hal_pcd.c ****   else
1446:Drivers/STM32G4xx_HAL_Driver/Src/stm32g4xx_hal_pcd.c ****   {
1447:Drivers/STM32G4xx_HAL_Driver/Src/stm32g4xx_hal_pcd.c ****     (void)USB_EPStartXfer(hpcd->Instance, ep);
 1014              		.loc 1 1447 0
 1015 002c 0068     		ldr	r0, [r0]
 1016              	.LVL94:
 1017 002e FFF7FEFF 		bl	USB_EPStartXfer
 1018              	.LVL95:
 1019              	.L90:
1448:Drivers/STM32G4xx_HAL_Driver/Src/stm32g4xx_hal_pcd.c ****   }
1449:Drivers/STM32G4xx_HAL_Driver/Src/stm32g4xx_hal_pcd.c **** 
1450:Drivers/STM32G4xx_HAL_Driver/Src/stm32g4xx_hal_pcd.c ****   return HAL_OK;
1451:Drivers/STM32G4xx_HAL_Driver/Src/stm32g4xx_hal_pcd.c **** }
 1020              		.loc 1 1451 0
 1021 0032 0020     		movs	r0, #0
 1022 0034 70BD     		pop	{r4, r5, r6, pc}
 1023              	.LVL96:
 1024              	.L92:
1443:Drivers/STM32G4xx_HAL_Driver/Src/stm32g4xx_hal_pcd.c ****   }
 1025              		.loc 1 1443 0
 1026 0036 0068     		ldr	r0, [r0]
 1027              	.LVL97:
 1028 0038 FFF7FEFF 		bl	USB_EPStartXfer
 1029              	.LVL98:
 1030 003c F9E7     		b	.L90
 1031              		.cfi_endproc
 1032              	.LFE153:
 1034              		.section	.text.HAL_PCD_EP_GetRxCount,"ax",%progbits
 1035              		.align	1
 1036              		.global	HAL_PCD_EP_GetRxCount
 1037              		.syntax unified
 1038              		.thumb
ARM GAS  /var/folders/17/j_dgbcc52q10y0jc3c_zbwd80000gn/T//cc40SoIA.s 			page 45


 1039              		.thumb_func
 1040              		.fpu fpv5-sp-d16
 1042              	HAL_PCD_EP_GetRxCount:
 1043              	.LFB154:
1452:Drivers/STM32G4xx_HAL_Driver/Src/stm32g4xx_hal_pcd.c **** 
1453:Drivers/STM32G4xx_HAL_Driver/Src/stm32g4xx_hal_pcd.c **** /**
1454:Drivers/STM32G4xx_HAL_Driver/Src/stm32g4xx_hal_pcd.c ****   * @brief  Get Received Data Size
1455:Drivers/STM32G4xx_HAL_Driver/Src/stm32g4xx_hal_pcd.c ****   * @param  hpcd PCD handle
1456:Drivers/STM32G4xx_HAL_Driver/Src/stm32g4xx_hal_pcd.c ****   * @param  ep_addr endpoint address
1457:Drivers/STM32G4xx_HAL_Driver/Src/stm32g4xx_hal_pcd.c ****   * @retval Data Size
1458:Drivers/STM32G4xx_HAL_Driver/Src/stm32g4xx_hal_pcd.c ****   */
1459:Drivers/STM32G4xx_HAL_Driver/Src/stm32g4xx_hal_pcd.c **** uint32_t HAL_PCD_EP_GetRxCount(PCD_HandleTypeDef *hpcd, uint8_t ep_addr)
1460:Drivers/STM32G4xx_HAL_Driver/Src/stm32g4xx_hal_pcd.c **** {
 1044              		.loc 1 1460 0
 1045              		.cfi_startproc
 1046              		@ args = 0, pretend = 0, frame = 0
 1047              		@ frame_needed = 0, uses_anonymous_args = 0
 1048              		@ link register save eliminated.
 1049              	.LVL99:
1461:Drivers/STM32G4xx_HAL_Driver/Src/stm32g4xx_hal_pcd.c ****   return hpcd->OUT_ep[ep_addr & EP_ADDR_MSK].xfer_count;
 1050              		.loc 1 1461 0
 1051 0000 01F00701 		and	r1, r1, #7
 1052              	.LVL100:
 1053 0004 0A31     		adds	r1, r1, #10
 1054 0006 00EB4111 		add	r1, r0, r1, lsl #5
1462:Drivers/STM32G4xx_HAL_Driver/Src/stm32g4xx_hal_pcd.c **** }
 1055              		.loc 1 1462 0
 1056 000a 4868     		ldr	r0, [r1, #4]
 1057              	.LVL101:
 1058 000c 7047     		bx	lr
 1059              		.cfi_endproc
 1060              	.LFE154:
 1062              		.section	.text.HAL_PCD_EP_Transmit,"ax",%progbits
 1063              		.align	1
 1064              		.global	HAL_PCD_EP_Transmit
 1065              		.syntax unified
 1066              		.thumb
 1067              		.thumb_func
 1068              		.fpu fpv5-sp-d16
 1070              	HAL_PCD_EP_Transmit:
 1071              	.LFB155:
1463:Drivers/STM32G4xx_HAL_Driver/Src/stm32g4xx_hal_pcd.c **** /**
1464:Drivers/STM32G4xx_HAL_Driver/Src/stm32g4xx_hal_pcd.c ****   * @brief  Send an amount of data
1465:Drivers/STM32G4xx_HAL_Driver/Src/stm32g4xx_hal_pcd.c ****   * @param  hpcd PCD handle
1466:Drivers/STM32G4xx_HAL_Driver/Src/stm32g4xx_hal_pcd.c ****   * @param  ep_addr endpoint address
1467:Drivers/STM32G4xx_HAL_Driver/Src/stm32g4xx_hal_pcd.c ****   * @param  pBuf pointer to the transmission buffer
1468:Drivers/STM32G4xx_HAL_Driver/Src/stm32g4xx_hal_pcd.c ****   * @param  len amount of data to be sent
1469:Drivers/STM32G4xx_HAL_Driver/Src/stm32g4xx_hal_pcd.c ****   * @retval HAL status
1470:Drivers/STM32G4xx_HAL_Driver/Src/stm32g4xx_hal_pcd.c ****   */
1471:Drivers/STM32G4xx_HAL_Driver/Src/stm32g4xx_hal_pcd.c **** HAL_StatusTypeDef HAL_PCD_EP_Transmit(PCD_HandleTypeDef *hpcd, uint8_t ep_addr, uint8_t *pBuf, uint
1472:Drivers/STM32G4xx_HAL_Driver/Src/stm32g4xx_hal_pcd.c **** {
 1072              		.loc 1 1472 0
 1073              		.cfi_startproc
 1074              		@ args = 0, pretend = 0, frame = 0
 1075              		@ frame_needed = 0, uses_anonymous_args = 0
 1076              	.LVL102:
 1077 0000 70B5     		push	{r4, r5, r6, lr}
ARM GAS  /var/folders/17/j_dgbcc52q10y0jc3c_zbwd80000gn/T//cc40SoIA.s 			page 46


 1078              		.cfi_def_cfa_offset 16
 1079              		.cfi_offset 4, -16
 1080              		.cfi_offset 5, -12
 1081              		.cfi_offset 6, -8
 1082              		.cfi_offset 14, -4
 1083 0002 01F00705 		and	r5, r1, #7
1473:Drivers/STM32G4xx_HAL_Driver/Src/stm32g4xx_hal_pcd.c ****   PCD_EPTypeDef *ep;
1474:Drivers/STM32G4xx_HAL_Driver/Src/stm32g4xx_hal_pcd.c **** 
1475:Drivers/STM32G4xx_HAL_Driver/Src/stm32g4xx_hal_pcd.c ****   ep = &hpcd->IN_ep[ep_addr & EP_ADDR_MSK];
 1084              		.loc 1 1475 0
 1085 0006 6C01     		lsls	r4, r5, #5
 1086 0008 04F12801 		add	r1, r4, #40
 1087              	.LVL103:
 1088 000c 0144     		add	r1, r1, r0
 1089              	.LVL104:
1476:Drivers/STM32G4xx_HAL_Driver/Src/stm32g4xx_hal_pcd.c **** 
1477:Drivers/STM32G4xx_HAL_Driver/Src/stm32g4xx_hal_pcd.c ****   /*setup and start the Xfer */
1478:Drivers/STM32G4xx_HAL_Driver/Src/stm32g4xx_hal_pcd.c ****   ep->xfer_buff = pBuf;
 1090              		.loc 1 1478 0
 1091 000e 0444     		add	r4, r4, r0
 1092 0010 E263     		str	r2, [r4, #60]
1479:Drivers/STM32G4xx_HAL_Driver/Src/stm32g4xx_hal_pcd.c ****   ep->xfer_len = len;
 1093              		.loc 1 1479 0
 1094 0012 AA1C     		adds	r2, r5, #2
 1095              	.LVL105:
 1096 0014 5201     		lsls	r2, r2, #5
 1097 0016 8618     		adds	r6, r0, r2
 1098 0018 8350     		str	r3, [r0, r2]
 1099              	.LVL106:
1480:Drivers/STM32G4xx_HAL_Driver/Src/stm32g4xx_hal_pcd.c ****   ep->xfer_count = 0U;
 1100              		.loc 1 1480 0
 1101 001a 0023     		movs	r3, #0
 1102              	.LVL107:
 1103 001c 7360     		str	r3, [r6, #4]
1481:Drivers/STM32G4xx_HAL_Driver/Src/stm32g4xx_hal_pcd.c ****   ep->is_in = 1U;
 1104              		.loc 1 1481 0
 1105 001e 0123     		movs	r3, #1
 1106 0020 84F82930 		strb	r3, [r4, #41]
 1107              	.LVL108:
1482:Drivers/STM32G4xx_HAL_Driver/Src/stm32g4xx_hal_pcd.c ****   ep->num = ep_addr & EP_ADDR_MSK;
 1108              		.loc 1 1482 0
 1109 0024 84F82850 		strb	r5, [r4, #40]
1483:Drivers/STM32G4xx_HAL_Driver/Src/stm32g4xx_hal_pcd.c **** 
1484:Drivers/STM32G4xx_HAL_Driver/Src/stm32g4xx_hal_pcd.c ****   if ((ep_addr & EP_ADDR_MSK) == 0U)
 1110              		.loc 1 1484 0
 1111 0028 25B1     		cbz	r5, .L98
1485:Drivers/STM32G4xx_HAL_Driver/Src/stm32g4xx_hal_pcd.c ****   {
1486:Drivers/STM32G4xx_HAL_Driver/Src/stm32g4xx_hal_pcd.c ****     (void)USB_EP0StartXfer(hpcd->Instance, ep);
1487:Drivers/STM32G4xx_HAL_Driver/Src/stm32g4xx_hal_pcd.c ****   }
1488:Drivers/STM32G4xx_HAL_Driver/Src/stm32g4xx_hal_pcd.c ****   else
1489:Drivers/STM32G4xx_HAL_Driver/Src/stm32g4xx_hal_pcd.c ****   {
1490:Drivers/STM32G4xx_HAL_Driver/Src/stm32g4xx_hal_pcd.c ****     (void)USB_EPStartXfer(hpcd->Instance, ep);
 1112              		.loc 1 1490 0
 1113 002a 0068     		ldr	r0, [r0]
 1114              	.LVL109:
 1115 002c FFF7FEFF 		bl	USB_EPStartXfer
 1116              	.LVL110:
ARM GAS  /var/folders/17/j_dgbcc52q10y0jc3c_zbwd80000gn/T//cc40SoIA.s 			page 47


 1117              	.L96:
1491:Drivers/STM32G4xx_HAL_Driver/Src/stm32g4xx_hal_pcd.c ****   }
1492:Drivers/STM32G4xx_HAL_Driver/Src/stm32g4xx_hal_pcd.c **** 
1493:Drivers/STM32G4xx_HAL_Driver/Src/stm32g4xx_hal_pcd.c ****   return HAL_OK;
1494:Drivers/STM32G4xx_HAL_Driver/Src/stm32g4xx_hal_pcd.c **** }
 1118              		.loc 1 1494 0
 1119 0030 0020     		movs	r0, #0
 1120 0032 70BD     		pop	{r4, r5, r6, pc}
 1121              	.LVL111:
 1122              	.L98:
1486:Drivers/STM32G4xx_HAL_Driver/Src/stm32g4xx_hal_pcd.c ****   }
 1123              		.loc 1 1486 0
 1124 0034 0068     		ldr	r0, [r0]
 1125              	.LVL112:
 1126 0036 FFF7FEFF 		bl	USB_EPStartXfer
 1127              	.LVL113:
 1128 003a F9E7     		b	.L96
 1129              		.cfi_endproc
 1130              	.LFE155:
 1132              		.section	.text.PCD_EP_ISR_Handler,"ax",%progbits
 1133              		.align	1
 1134              		.syntax unified
 1135              		.thumb
 1136              		.thumb_func
 1137              		.fpu fpv5-sp-d16
 1139              	PCD_EP_ISR_Handler:
 1140              	.LFB162:
1495:Drivers/STM32G4xx_HAL_Driver/Src/stm32g4xx_hal_pcd.c **** 
1496:Drivers/STM32G4xx_HAL_Driver/Src/stm32g4xx_hal_pcd.c **** /**
1497:Drivers/STM32G4xx_HAL_Driver/Src/stm32g4xx_hal_pcd.c ****   * @brief  Set a STALL condition over an endpoint
1498:Drivers/STM32G4xx_HAL_Driver/Src/stm32g4xx_hal_pcd.c ****   * @param  hpcd PCD handle
1499:Drivers/STM32G4xx_HAL_Driver/Src/stm32g4xx_hal_pcd.c ****   * @param  ep_addr endpoint address
1500:Drivers/STM32G4xx_HAL_Driver/Src/stm32g4xx_hal_pcd.c ****   * @retval HAL status
1501:Drivers/STM32G4xx_HAL_Driver/Src/stm32g4xx_hal_pcd.c ****   */
1502:Drivers/STM32G4xx_HAL_Driver/Src/stm32g4xx_hal_pcd.c **** HAL_StatusTypeDef HAL_PCD_EP_SetStall(PCD_HandleTypeDef *hpcd, uint8_t ep_addr)
1503:Drivers/STM32G4xx_HAL_Driver/Src/stm32g4xx_hal_pcd.c **** {
1504:Drivers/STM32G4xx_HAL_Driver/Src/stm32g4xx_hal_pcd.c ****   PCD_EPTypeDef *ep;
1505:Drivers/STM32G4xx_HAL_Driver/Src/stm32g4xx_hal_pcd.c **** 
1506:Drivers/STM32G4xx_HAL_Driver/Src/stm32g4xx_hal_pcd.c ****   if (((uint32_t)ep_addr & EP_ADDR_MSK) > hpcd->Init.dev_endpoints)
1507:Drivers/STM32G4xx_HAL_Driver/Src/stm32g4xx_hal_pcd.c ****   {
1508:Drivers/STM32G4xx_HAL_Driver/Src/stm32g4xx_hal_pcd.c ****     return HAL_ERROR;
1509:Drivers/STM32G4xx_HAL_Driver/Src/stm32g4xx_hal_pcd.c ****   }
1510:Drivers/STM32G4xx_HAL_Driver/Src/stm32g4xx_hal_pcd.c **** 
1511:Drivers/STM32G4xx_HAL_Driver/Src/stm32g4xx_hal_pcd.c ****   if ((0x80U & ep_addr) == 0x80U)
1512:Drivers/STM32G4xx_HAL_Driver/Src/stm32g4xx_hal_pcd.c ****   {
1513:Drivers/STM32G4xx_HAL_Driver/Src/stm32g4xx_hal_pcd.c ****     ep = &hpcd->IN_ep[ep_addr & EP_ADDR_MSK];
1514:Drivers/STM32G4xx_HAL_Driver/Src/stm32g4xx_hal_pcd.c ****     ep->is_in = 1U;
1515:Drivers/STM32G4xx_HAL_Driver/Src/stm32g4xx_hal_pcd.c ****   }
1516:Drivers/STM32G4xx_HAL_Driver/Src/stm32g4xx_hal_pcd.c ****   else
1517:Drivers/STM32G4xx_HAL_Driver/Src/stm32g4xx_hal_pcd.c ****   {
1518:Drivers/STM32G4xx_HAL_Driver/Src/stm32g4xx_hal_pcd.c ****     ep = &hpcd->OUT_ep[ep_addr];
1519:Drivers/STM32G4xx_HAL_Driver/Src/stm32g4xx_hal_pcd.c ****     ep->is_in = 0U;
1520:Drivers/STM32G4xx_HAL_Driver/Src/stm32g4xx_hal_pcd.c ****   }
1521:Drivers/STM32G4xx_HAL_Driver/Src/stm32g4xx_hal_pcd.c **** 
1522:Drivers/STM32G4xx_HAL_Driver/Src/stm32g4xx_hal_pcd.c ****   ep->is_stall = 1U;
1523:Drivers/STM32G4xx_HAL_Driver/Src/stm32g4xx_hal_pcd.c ****   ep->num = ep_addr & EP_ADDR_MSK;
1524:Drivers/STM32G4xx_HAL_Driver/Src/stm32g4xx_hal_pcd.c **** 
ARM GAS  /var/folders/17/j_dgbcc52q10y0jc3c_zbwd80000gn/T//cc40SoIA.s 			page 48


1525:Drivers/STM32G4xx_HAL_Driver/Src/stm32g4xx_hal_pcd.c ****   __HAL_LOCK(hpcd);
1526:Drivers/STM32G4xx_HAL_Driver/Src/stm32g4xx_hal_pcd.c **** 
1527:Drivers/STM32G4xx_HAL_Driver/Src/stm32g4xx_hal_pcd.c ****   (void)USB_EPSetStall(hpcd->Instance, ep);
1528:Drivers/STM32G4xx_HAL_Driver/Src/stm32g4xx_hal_pcd.c ****   if ((ep_addr & EP_ADDR_MSK) == 0U)
1529:Drivers/STM32G4xx_HAL_Driver/Src/stm32g4xx_hal_pcd.c ****   {
1530:Drivers/STM32G4xx_HAL_Driver/Src/stm32g4xx_hal_pcd.c ****     (void)USB_EP0_OutStart(hpcd->Instance, (uint8_t *)hpcd->Setup);
1531:Drivers/STM32G4xx_HAL_Driver/Src/stm32g4xx_hal_pcd.c ****   }
1532:Drivers/STM32G4xx_HAL_Driver/Src/stm32g4xx_hal_pcd.c ****   __HAL_UNLOCK(hpcd);
1533:Drivers/STM32G4xx_HAL_Driver/Src/stm32g4xx_hal_pcd.c **** 
1534:Drivers/STM32G4xx_HAL_Driver/Src/stm32g4xx_hal_pcd.c ****   return HAL_OK;
1535:Drivers/STM32G4xx_HAL_Driver/Src/stm32g4xx_hal_pcd.c **** }
1536:Drivers/STM32G4xx_HAL_Driver/Src/stm32g4xx_hal_pcd.c **** 
1537:Drivers/STM32G4xx_HAL_Driver/Src/stm32g4xx_hal_pcd.c **** /**
1538:Drivers/STM32G4xx_HAL_Driver/Src/stm32g4xx_hal_pcd.c ****   * @brief  Clear a STALL condition over in an endpoint
1539:Drivers/STM32G4xx_HAL_Driver/Src/stm32g4xx_hal_pcd.c ****   * @param  hpcd PCD handle
1540:Drivers/STM32G4xx_HAL_Driver/Src/stm32g4xx_hal_pcd.c ****   * @param  ep_addr endpoint address
1541:Drivers/STM32G4xx_HAL_Driver/Src/stm32g4xx_hal_pcd.c ****   * @retval HAL status
1542:Drivers/STM32G4xx_HAL_Driver/Src/stm32g4xx_hal_pcd.c ****   */
1543:Drivers/STM32G4xx_HAL_Driver/Src/stm32g4xx_hal_pcd.c **** HAL_StatusTypeDef HAL_PCD_EP_ClrStall(PCD_HandleTypeDef *hpcd, uint8_t ep_addr)
1544:Drivers/STM32G4xx_HAL_Driver/Src/stm32g4xx_hal_pcd.c **** {
1545:Drivers/STM32G4xx_HAL_Driver/Src/stm32g4xx_hal_pcd.c ****   PCD_EPTypeDef *ep;
1546:Drivers/STM32G4xx_HAL_Driver/Src/stm32g4xx_hal_pcd.c **** 
1547:Drivers/STM32G4xx_HAL_Driver/Src/stm32g4xx_hal_pcd.c ****   if (((uint32_t)ep_addr & 0x0FU) > hpcd->Init.dev_endpoints)
1548:Drivers/STM32G4xx_HAL_Driver/Src/stm32g4xx_hal_pcd.c ****   {
1549:Drivers/STM32G4xx_HAL_Driver/Src/stm32g4xx_hal_pcd.c ****     return HAL_ERROR;
1550:Drivers/STM32G4xx_HAL_Driver/Src/stm32g4xx_hal_pcd.c ****   }
1551:Drivers/STM32G4xx_HAL_Driver/Src/stm32g4xx_hal_pcd.c **** 
1552:Drivers/STM32G4xx_HAL_Driver/Src/stm32g4xx_hal_pcd.c ****   if ((0x80U & ep_addr) == 0x80U)
1553:Drivers/STM32G4xx_HAL_Driver/Src/stm32g4xx_hal_pcd.c ****   {
1554:Drivers/STM32G4xx_HAL_Driver/Src/stm32g4xx_hal_pcd.c ****     ep = &hpcd->IN_ep[ep_addr & EP_ADDR_MSK];
1555:Drivers/STM32G4xx_HAL_Driver/Src/stm32g4xx_hal_pcd.c ****     ep->is_in = 1U;
1556:Drivers/STM32G4xx_HAL_Driver/Src/stm32g4xx_hal_pcd.c ****   }
1557:Drivers/STM32G4xx_HAL_Driver/Src/stm32g4xx_hal_pcd.c ****   else
1558:Drivers/STM32G4xx_HAL_Driver/Src/stm32g4xx_hal_pcd.c ****   {
1559:Drivers/STM32G4xx_HAL_Driver/Src/stm32g4xx_hal_pcd.c ****     ep = &hpcd->OUT_ep[ep_addr & EP_ADDR_MSK];
1560:Drivers/STM32G4xx_HAL_Driver/Src/stm32g4xx_hal_pcd.c ****     ep->is_in = 0U;
1561:Drivers/STM32G4xx_HAL_Driver/Src/stm32g4xx_hal_pcd.c ****   }
1562:Drivers/STM32G4xx_HAL_Driver/Src/stm32g4xx_hal_pcd.c **** 
1563:Drivers/STM32G4xx_HAL_Driver/Src/stm32g4xx_hal_pcd.c ****   ep->is_stall = 0U;
1564:Drivers/STM32G4xx_HAL_Driver/Src/stm32g4xx_hal_pcd.c ****   ep->num = ep_addr & EP_ADDR_MSK;
1565:Drivers/STM32G4xx_HAL_Driver/Src/stm32g4xx_hal_pcd.c **** 
1566:Drivers/STM32G4xx_HAL_Driver/Src/stm32g4xx_hal_pcd.c ****   __HAL_LOCK(hpcd);
1567:Drivers/STM32G4xx_HAL_Driver/Src/stm32g4xx_hal_pcd.c ****   (void)USB_EPClearStall(hpcd->Instance, ep);
1568:Drivers/STM32G4xx_HAL_Driver/Src/stm32g4xx_hal_pcd.c ****   __HAL_UNLOCK(hpcd);
1569:Drivers/STM32G4xx_HAL_Driver/Src/stm32g4xx_hal_pcd.c **** 
1570:Drivers/STM32G4xx_HAL_Driver/Src/stm32g4xx_hal_pcd.c ****   return HAL_OK;
1571:Drivers/STM32G4xx_HAL_Driver/Src/stm32g4xx_hal_pcd.c **** }
1572:Drivers/STM32G4xx_HAL_Driver/Src/stm32g4xx_hal_pcd.c **** 
1573:Drivers/STM32G4xx_HAL_Driver/Src/stm32g4xx_hal_pcd.c **** /**
1574:Drivers/STM32G4xx_HAL_Driver/Src/stm32g4xx_hal_pcd.c ****   * @brief  Flush an endpoint
1575:Drivers/STM32G4xx_HAL_Driver/Src/stm32g4xx_hal_pcd.c ****   * @param  hpcd PCD handle
1576:Drivers/STM32G4xx_HAL_Driver/Src/stm32g4xx_hal_pcd.c ****   * @param  ep_addr endpoint address
1577:Drivers/STM32G4xx_HAL_Driver/Src/stm32g4xx_hal_pcd.c ****   * @retval HAL status
1578:Drivers/STM32G4xx_HAL_Driver/Src/stm32g4xx_hal_pcd.c ****   */
1579:Drivers/STM32G4xx_HAL_Driver/Src/stm32g4xx_hal_pcd.c **** HAL_StatusTypeDef HAL_PCD_EP_Flush(PCD_HandleTypeDef *hpcd, uint8_t ep_addr)
1580:Drivers/STM32G4xx_HAL_Driver/Src/stm32g4xx_hal_pcd.c **** {
1581:Drivers/STM32G4xx_HAL_Driver/Src/stm32g4xx_hal_pcd.c ****   /* Prevent unused argument(s) compilation warning */
ARM GAS  /var/folders/17/j_dgbcc52q10y0jc3c_zbwd80000gn/T//cc40SoIA.s 			page 49


1582:Drivers/STM32G4xx_HAL_Driver/Src/stm32g4xx_hal_pcd.c ****   UNUSED(hpcd);
1583:Drivers/STM32G4xx_HAL_Driver/Src/stm32g4xx_hal_pcd.c ****   UNUSED(ep_addr);
1584:Drivers/STM32G4xx_HAL_Driver/Src/stm32g4xx_hal_pcd.c **** 
1585:Drivers/STM32G4xx_HAL_Driver/Src/stm32g4xx_hal_pcd.c ****   return HAL_OK;
1586:Drivers/STM32G4xx_HAL_Driver/Src/stm32g4xx_hal_pcd.c **** }
1587:Drivers/STM32G4xx_HAL_Driver/Src/stm32g4xx_hal_pcd.c **** 
1588:Drivers/STM32G4xx_HAL_Driver/Src/stm32g4xx_hal_pcd.c **** /**
1589:Drivers/STM32G4xx_HAL_Driver/Src/stm32g4xx_hal_pcd.c ****   * @brief  Activate remote wakeup signalling
1590:Drivers/STM32G4xx_HAL_Driver/Src/stm32g4xx_hal_pcd.c ****   * @param  hpcd PCD handle
1591:Drivers/STM32G4xx_HAL_Driver/Src/stm32g4xx_hal_pcd.c ****   * @retval HAL status
1592:Drivers/STM32G4xx_HAL_Driver/Src/stm32g4xx_hal_pcd.c ****   */
1593:Drivers/STM32G4xx_HAL_Driver/Src/stm32g4xx_hal_pcd.c **** HAL_StatusTypeDef HAL_PCD_ActivateRemoteWakeup(PCD_HandleTypeDef *hpcd)
1594:Drivers/STM32G4xx_HAL_Driver/Src/stm32g4xx_hal_pcd.c **** {
1595:Drivers/STM32G4xx_HAL_Driver/Src/stm32g4xx_hal_pcd.c ****   return (USB_ActivateRemoteWakeup(hpcd->Instance));
1596:Drivers/STM32G4xx_HAL_Driver/Src/stm32g4xx_hal_pcd.c **** }
1597:Drivers/STM32G4xx_HAL_Driver/Src/stm32g4xx_hal_pcd.c **** 
1598:Drivers/STM32G4xx_HAL_Driver/Src/stm32g4xx_hal_pcd.c **** /**
1599:Drivers/STM32G4xx_HAL_Driver/Src/stm32g4xx_hal_pcd.c ****   * @brief  De-activate remote wakeup signalling.
1600:Drivers/STM32G4xx_HAL_Driver/Src/stm32g4xx_hal_pcd.c ****   * @param  hpcd PCD handle
1601:Drivers/STM32G4xx_HAL_Driver/Src/stm32g4xx_hal_pcd.c ****   * @retval HAL status
1602:Drivers/STM32G4xx_HAL_Driver/Src/stm32g4xx_hal_pcd.c ****   */
1603:Drivers/STM32G4xx_HAL_Driver/Src/stm32g4xx_hal_pcd.c **** HAL_StatusTypeDef HAL_PCD_DeActivateRemoteWakeup(PCD_HandleTypeDef *hpcd)
1604:Drivers/STM32G4xx_HAL_Driver/Src/stm32g4xx_hal_pcd.c **** {
1605:Drivers/STM32G4xx_HAL_Driver/Src/stm32g4xx_hal_pcd.c ****   return (USB_DeActivateRemoteWakeup(hpcd->Instance));
1606:Drivers/STM32G4xx_HAL_Driver/Src/stm32g4xx_hal_pcd.c **** }
1607:Drivers/STM32G4xx_HAL_Driver/Src/stm32g4xx_hal_pcd.c **** 
1608:Drivers/STM32G4xx_HAL_Driver/Src/stm32g4xx_hal_pcd.c **** /**
1609:Drivers/STM32G4xx_HAL_Driver/Src/stm32g4xx_hal_pcd.c ****   * @}
1610:Drivers/STM32G4xx_HAL_Driver/Src/stm32g4xx_hal_pcd.c ****   */
1611:Drivers/STM32G4xx_HAL_Driver/Src/stm32g4xx_hal_pcd.c **** 
1612:Drivers/STM32G4xx_HAL_Driver/Src/stm32g4xx_hal_pcd.c **** /** @defgroup PCD_Exported_Functions_Group4 Peripheral State functions
1613:Drivers/STM32G4xx_HAL_Driver/Src/stm32g4xx_hal_pcd.c ****  *  @brief   Peripheral State functions
1614:Drivers/STM32G4xx_HAL_Driver/Src/stm32g4xx_hal_pcd.c ****  *
1615:Drivers/STM32G4xx_HAL_Driver/Src/stm32g4xx_hal_pcd.c **** @verbatim
1616:Drivers/STM32G4xx_HAL_Driver/Src/stm32g4xx_hal_pcd.c ****  ===============================================================================
1617:Drivers/STM32G4xx_HAL_Driver/Src/stm32g4xx_hal_pcd.c ****                       ##### Peripheral State functions #####
1618:Drivers/STM32G4xx_HAL_Driver/Src/stm32g4xx_hal_pcd.c ****  ===============================================================================
1619:Drivers/STM32G4xx_HAL_Driver/Src/stm32g4xx_hal_pcd.c ****     [..]
1620:Drivers/STM32G4xx_HAL_Driver/Src/stm32g4xx_hal_pcd.c ****     This subsection permits to get in run-time the status of the peripheral
1621:Drivers/STM32G4xx_HAL_Driver/Src/stm32g4xx_hal_pcd.c ****     and the data flow.
1622:Drivers/STM32G4xx_HAL_Driver/Src/stm32g4xx_hal_pcd.c **** 
1623:Drivers/STM32G4xx_HAL_Driver/Src/stm32g4xx_hal_pcd.c **** @endverbatim
1624:Drivers/STM32G4xx_HAL_Driver/Src/stm32g4xx_hal_pcd.c ****   * @{
1625:Drivers/STM32G4xx_HAL_Driver/Src/stm32g4xx_hal_pcd.c ****   */
1626:Drivers/STM32G4xx_HAL_Driver/Src/stm32g4xx_hal_pcd.c **** 
1627:Drivers/STM32G4xx_HAL_Driver/Src/stm32g4xx_hal_pcd.c **** /**
1628:Drivers/STM32G4xx_HAL_Driver/Src/stm32g4xx_hal_pcd.c ****   * @brief  Return the PCD handle state.
1629:Drivers/STM32G4xx_HAL_Driver/Src/stm32g4xx_hal_pcd.c ****   * @param  hpcd PCD handle
1630:Drivers/STM32G4xx_HAL_Driver/Src/stm32g4xx_hal_pcd.c ****   * @retval HAL state
1631:Drivers/STM32G4xx_HAL_Driver/Src/stm32g4xx_hal_pcd.c ****   */
1632:Drivers/STM32G4xx_HAL_Driver/Src/stm32g4xx_hal_pcd.c **** PCD_StateTypeDef HAL_PCD_GetState(PCD_HandleTypeDef *hpcd)
1633:Drivers/STM32G4xx_HAL_Driver/Src/stm32g4xx_hal_pcd.c **** {
1634:Drivers/STM32G4xx_HAL_Driver/Src/stm32g4xx_hal_pcd.c ****   return hpcd->State;
1635:Drivers/STM32G4xx_HAL_Driver/Src/stm32g4xx_hal_pcd.c **** }
1636:Drivers/STM32G4xx_HAL_Driver/Src/stm32g4xx_hal_pcd.c **** 
1637:Drivers/STM32G4xx_HAL_Driver/Src/stm32g4xx_hal_pcd.c **** /**
1638:Drivers/STM32G4xx_HAL_Driver/Src/stm32g4xx_hal_pcd.c ****   * @}
ARM GAS  /var/folders/17/j_dgbcc52q10y0jc3c_zbwd80000gn/T//cc40SoIA.s 			page 50


1639:Drivers/STM32G4xx_HAL_Driver/Src/stm32g4xx_hal_pcd.c ****   */
1640:Drivers/STM32G4xx_HAL_Driver/Src/stm32g4xx_hal_pcd.c **** 
1641:Drivers/STM32G4xx_HAL_Driver/Src/stm32g4xx_hal_pcd.c **** /**
1642:Drivers/STM32G4xx_HAL_Driver/Src/stm32g4xx_hal_pcd.c ****   * @}
1643:Drivers/STM32G4xx_HAL_Driver/Src/stm32g4xx_hal_pcd.c ****   */
1644:Drivers/STM32G4xx_HAL_Driver/Src/stm32g4xx_hal_pcd.c **** 
1645:Drivers/STM32G4xx_HAL_Driver/Src/stm32g4xx_hal_pcd.c **** /* Private functions ---------------------------------------------------------*/
1646:Drivers/STM32G4xx_HAL_Driver/Src/stm32g4xx_hal_pcd.c **** /** @addtogroup PCD_Private_Functions
1647:Drivers/STM32G4xx_HAL_Driver/Src/stm32g4xx_hal_pcd.c ****   * @{
1648:Drivers/STM32G4xx_HAL_Driver/Src/stm32g4xx_hal_pcd.c ****   */
1649:Drivers/STM32G4xx_HAL_Driver/Src/stm32g4xx_hal_pcd.c **** 
1650:Drivers/STM32G4xx_HAL_Driver/Src/stm32g4xx_hal_pcd.c **** 
1651:Drivers/STM32G4xx_HAL_Driver/Src/stm32g4xx_hal_pcd.c **** /**
1652:Drivers/STM32G4xx_HAL_Driver/Src/stm32g4xx_hal_pcd.c ****   * @brief  This function handles PCD Endpoint interrupt request.
1653:Drivers/STM32G4xx_HAL_Driver/Src/stm32g4xx_hal_pcd.c ****   * @param  hpcd PCD handle
1654:Drivers/STM32G4xx_HAL_Driver/Src/stm32g4xx_hal_pcd.c ****   * @retval HAL status
1655:Drivers/STM32G4xx_HAL_Driver/Src/stm32g4xx_hal_pcd.c ****   */
1656:Drivers/STM32G4xx_HAL_Driver/Src/stm32g4xx_hal_pcd.c **** static HAL_StatusTypeDef PCD_EP_ISR_Handler(PCD_HandleTypeDef *hpcd)
1657:Drivers/STM32G4xx_HAL_Driver/Src/stm32g4xx_hal_pcd.c **** {
 1141              		.loc 1 1657 0
 1142              		.cfi_startproc
 1143              		@ args = 0, pretend = 0, frame = 0
 1144              		@ frame_needed = 0, uses_anonymous_args = 0
 1145              	.LVL114:
 1146 0000 F8B5     		push	{r3, r4, r5, r6, r7, lr}
 1147              		.cfi_def_cfa_offset 24
 1148              		.cfi_offset 3, -24
 1149              		.cfi_offset 4, -20
 1150              		.cfi_offset 5, -16
 1151              		.cfi_offset 6, -12
 1152              		.cfi_offset 7, -8
 1153              		.cfi_offset 14, -4
 1154 0002 0446     		mov	r4, r0
 1155              	.LVL115:
 1156              	.L100:
1658:Drivers/STM32G4xx_HAL_Driver/Src/stm32g4xx_hal_pcd.c ****   PCD_EPTypeDef *ep;
1659:Drivers/STM32G4xx_HAL_Driver/Src/stm32g4xx_hal_pcd.c ****   uint16_t count;
1660:Drivers/STM32G4xx_HAL_Driver/Src/stm32g4xx_hal_pcd.c ****   uint16_t wIstr;
1661:Drivers/STM32G4xx_HAL_Driver/Src/stm32g4xx_hal_pcd.c ****   uint16_t wEPVal;
1662:Drivers/STM32G4xx_HAL_Driver/Src/stm32g4xx_hal_pcd.c ****   uint8_t epindex;
1663:Drivers/STM32G4xx_HAL_Driver/Src/stm32g4xx_hal_pcd.c **** 
1664:Drivers/STM32G4xx_HAL_Driver/Src/stm32g4xx_hal_pcd.c ****   /* stay in loop while pending interrupts */
1665:Drivers/STM32G4xx_HAL_Driver/Src/stm32g4xx_hal_pcd.c ****   while ((hpcd->Instance->ISTR & USB_ISTR_CTR) != 0U)
 1157              		.loc 1 1665 0
 1158 0004 2068     		ldr	r0, [r4]
 1159 0006 B0F84430 		ldrh	r3, [r0, #68]
 1160 000a 13F4004F 		tst	r3, #32768
 1161 000e 00F08E81 		beq	.L120
1666:Drivers/STM32G4xx_HAL_Driver/Src/stm32g4xx_hal_pcd.c ****   {
1667:Drivers/STM32G4xx_HAL_Driver/Src/stm32g4xx_hal_pcd.c ****     wIstr = hpcd->Instance->ISTR;
 1162              		.loc 1 1667 0
 1163 0012 B0F84430 		ldrh	r3, [r0, #68]
 1164 0016 9BB2     		uxth	r3, r3
 1165              	.LVL116:
1668:Drivers/STM32G4xx_HAL_Driver/Src/stm32g4xx_hal_pcd.c ****     /* extract highest priority endpoint number */
1669:Drivers/STM32G4xx_HAL_Driver/Src/stm32g4xx_hal_pcd.c ****     epindex = (uint8_t)(wIstr & USB_ISTR_EP_ID);
1670:Drivers/STM32G4xx_HAL_Driver/Src/stm32g4xx_hal_pcd.c **** 
ARM GAS  /var/folders/17/j_dgbcc52q10y0jc3c_zbwd80000gn/T//cc40SoIA.s 			page 51


1671:Drivers/STM32G4xx_HAL_Driver/Src/stm32g4xx_hal_pcd.c ****     if (epindex == 0U)
 1166              		.loc 1 1671 0
 1167 0018 13F00F05 		ands	r5, r3, #15
 1168 001c 40F0BF80 		bne	.L101
1672:Drivers/STM32G4xx_HAL_Driver/Src/stm32g4xx_hal_pcd.c ****     {
1673:Drivers/STM32G4xx_HAL_Driver/Src/stm32g4xx_hal_pcd.c ****       /* Decode and service control endpoint interrupt */
1674:Drivers/STM32G4xx_HAL_Driver/Src/stm32g4xx_hal_pcd.c **** 
1675:Drivers/STM32G4xx_HAL_Driver/Src/stm32g4xx_hal_pcd.c ****       /* DIR bit = origin of the interrupt */
1676:Drivers/STM32G4xx_HAL_Driver/Src/stm32g4xx_hal_pcd.c ****       if ((wIstr & USB_ISTR_DIR) == 0U)
 1169              		.loc 1 1676 0
 1170 0020 13F0100F 		tst	r3, #16
 1171 0024 53D0     		beq	.L121
 1172              	.LVL117:
1677:Drivers/STM32G4xx_HAL_Driver/Src/stm32g4xx_hal_pcd.c ****       {
1678:Drivers/STM32G4xx_HAL_Driver/Src/stm32g4xx_hal_pcd.c ****         /* DIR = 0 */
1679:Drivers/STM32G4xx_HAL_Driver/Src/stm32g4xx_hal_pcd.c **** 
1680:Drivers/STM32G4xx_HAL_Driver/Src/stm32g4xx_hal_pcd.c ****         /* DIR = 0 => IN  int */
1681:Drivers/STM32G4xx_HAL_Driver/Src/stm32g4xx_hal_pcd.c ****         /* DIR = 0 implies that (EP_CTR_TX = 1) always */
1682:Drivers/STM32G4xx_HAL_Driver/Src/stm32g4xx_hal_pcd.c ****         PCD_CLEAR_TX_EP_CTR(hpcd->Instance, PCD_ENDP0);
1683:Drivers/STM32G4xx_HAL_Driver/Src/stm32g4xx_hal_pcd.c ****         ep = &hpcd->IN_ep[0];
1684:Drivers/STM32G4xx_HAL_Driver/Src/stm32g4xx_hal_pcd.c **** 
1685:Drivers/STM32G4xx_HAL_Driver/Src/stm32g4xx_hal_pcd.c ****         ep->xfer_count = PCD_GET_EP_TX_CNT(hpcd->Instance, ep->num);
1686:Drivers/STM32G4xx_HAL_Driver/Src/stm32g4xx_hal_pcd.c ****         ep->xfer_buff += ep->xfer_count;
1687:Drivers/STM32G4xx_HAL_Driver/Src/stm32g4xx_hal_pcd.c **** 
1688:Drivers/STM32G4xx_HAL_Driver/Src/stm32g4xx_hal_pcd.c ****         /* TX COMPLETE */
1689:Drivers/STM32G4xx_HAL_Driver/Src/stm32g4xx_hal_pcd.c **** #if (USE_HAL_PCD_REGISTER_CALLBACKS == 1U)
1690:Drivers/STM32G4xx_HAL_Driver/Src/stm32g4xx_hal_pcd.c ****         hpcd->DataInStageCallback(hpcd, 0U);
1691:Drivers/STM32G4xx_HAL_Driver/Src/stm32g4xx_hal_pcd.c **** #else
1692:Drivers/STM32G4xx_HAL_Driver/Src/stm32g4xx_hal_pcd.c ****         HAL_PCD_DataInStageCallback(hpcd, 0U);
1693:Drivers/STM32G4xx_HAL_Driver/Src/stm32g4xx_hal_pcd.c **** #endif /* USE_HAL_PCD_REGISTER_CALLBACKS */
1694:Drivers/STM32G4xx_HAL_Driver/Src/stm32g4xx_hal_pcd.c **** 
1695:Drivers/STM32G4xx_HAL_Driver/Src/stm32g4xx_hal_pcd.c ****         if ((hpcd->USB_Address > 0U) && (ep->xfer_len == 0U))
1696:Drivers/STM32G4xx_HAL_Driver/Src/stm32g4xx_hal_pcd.c ****         {
1697:Drivers/STM32G4xx_HAL_Driver/Src/stm32g4xx_hal_pcd.c ****           hpcd->Instance->DADDR = ((uint16_t)hpcd->USB_Address | USB_DADDR_EF);
1698:Drivers/STM32G4xx_HAL_Driver/Src/stm32g4xx_hal_pcd.c ****           hpcd->USB_Address = 0U;
1699:Drivers/STM32G4xx_HAL_Driver/Src/stm32g4xx_hal_pcd.c ****         }
1700:Drivers/STM32G4xx_HAL_Driver/Src/stm32g4xx_hal_pcd.c ****       }
1701:Drivers/STM32G4xx_HAL_Driver/Src/stm32g4xx_hal_pcd.c ****       else
1702:Drivers/STM32G4xx_HAL_Driver/Src/stm32g4xx_hal_pcd.c ****       {
1703:Drivers/STM32G4xx_HAL_Driver/Src/stm32g4xx_hal_pcd.c ****         /* DIR = 1 */
1704:Drivers/STM32G4xx_HAL_Driver/Src/stm32g4xx_hal_pcd.c **** 
1705:Drivers/STM32G4xx_HAL_Driver/Src/stm32g4xx_hal_pcd.c ****         /* DIR = 1 & CTR_RX => SETUP or OUT int */
1706:Drivers/STM32G4xx_HAL_Driver/Src/stm32g4xx_hal_pcd.c ****         /* DIR = 1 & (CTR_TX | CTR_RX) => 2 int pending */
1707:Drivers/STM32G4xx_HAL_Driver/Src/stm32g4xx_hal_pcd.c ****         ep = &hpcd->OUT_ep[0];
1708:Drivers/STM32G4xx_HAL_Driver/Src/stm32g4xx_hal_pcd.c ****         wEPVal = PCD_GET_ENDPOINT(hpcd->Instance, PCD_ENDP0);
 1173              		.loc 1 1708 0
 1174 0026 0388     		ldrh	r3, [r0]
 1175              	.LVL118:
 1176 0028 9BB2     		uxth	r3, r3
 1177              	.LVL119:
1709:Drivers/STM32G4xx_HAL_Driver/Src/stm32g4xx_hal_pcd.c **** 
1710:Drivers/STM32G4xx_HAL_Driver/Src/stm32g4xx_hal_pcd.c ****         if ((wEPVal & USB_EP_SETUP) != 0U)
 1178              		.loc 1 1710 0
 1179 002a 13F4006F 		tst	r3, #2048
 1180 002e 7ED1     		bne	.L122
1711:Drivers/STM32G4xx_HAL_Driver/Src/stm32g4xx_hal_pcd.c ****         {
1712:Drivers/STM32G4xx_HAL_Driver/Src/stm32g4xx_hal_pcd.c ****           /* Get SETUP Packet */
ARM GAS  /var/folders/17/j_dgbcc52q10y0jc3c_zbwd80000gn/T//cc40SoIA.s 			page 52


1713:Drivers/STM32G4xx_HAL_Driver/Src/stm32g4xx_hal_pcd.c ****           ep->xfer_count = PCD_GET_EP_RX_CNT(hpcd->Instance, ep->num);
1714:Drivers/STM32G4xx_HAL_Driver/Src/stm32g4xx_hal_pcd.c **** 
1715:Drivers/STM32G4xx_HAL_Driver/Src/stm32g4xx_hal_pcd.c ****           USB_ReadPMA(hpcd->Instance, (uint8_t *)hpcd->Setup,
1716:Drivers/STM32G4xx_HAL_Driver/Src/stm32g4xx_hal_pcd.c ****                       ep->pmaadress, (uint16_t)ep->xfer_count);
1717:Drivers/STM32G4xx_HAL_Driver/Src/stm32g4xx_hal_pcd.c **** 
1718:Drivers/STM32G4xx_HAL_Driver/Src/stm32g4xx_hal_pcd.c ****           /* SETUP bit kept frozen while CTR_RX = 1 */
1719:Drivers/STM32G4xx_HAL_Driver/Src/stm32g4xx_hal_pcd.c ****           PCD_CLEAR_RX_EP_CTR(hpcd->Instance, PCD_ENDP0);
1720:Drivers/STM32G4xx_HAL_Driver/Src/stm32g4xx_hal_pcd.c **** 
1721:Drivers/STM32G4xx_HAL_Driver/Src/stm32g4xx_hal_pcd.c ****           /* Process SETUP Packet*/
1722:Drivers/STM32G4xx_HAL_Driver/Src/stm32g4xx_hal_pcd.c **** #if (USE_HAL_PCD_REGISTER_CALLBACKS == 1U)
1723:Drivers/STM32G4xx_HAL_Driver/Src/stm32g4xx_hal_pcd.c ****           hpcd->SetupStageCallback(hpcd);
1724:Drivers/STM32G4xx_HAL_Driver/Src/stm32g4xx_hal_pcd.c **** #else
1725:Drivers/STM32G4xx_HAL_Driver/Src/stm32g4xx_hal_pcd.c ****           HAL_PCD_SetupStageCallback(hpcd);
1726:Drivers/STM32G4xx_HAL_Driver/Src/stm32g4xx_hal_pcd.c **** #endif /* USE_HAL_PCD_REGISTER_CALLBACKS */
1727:Drivers/STM32G4xx_HAL_Driver/Src/stm32g4xx_hal_pcd.c ****         }
1728:Drivers/STM32G4xx_HAL_Driver/Src/stm32g4xx_hal_pcd.c **** 
1729:Drivers/STM32G4xx_HAL_Driver/Src/stm32g4xx_hal_pcd.c ****         else if ((wEPVal & USB_EP_CTR_RX) != 0U)
 1181              		.loc 1 1729 0
 1182 0030 13F4004F 		tst	r3, #32768
 1183 0034 E6D0     		beq	.L100
 1184              	.LBB2:
1730:Drivers/STM32G4xx_HAL_Driver/Src/stm32g4xx_hal_pcd.c ****         {
1731:Drivers/STM32G4xx_HAL_Driver/Src/stm32g4xx_hal_pcd.c ****           PCD_CLEAR_RX_EP_CTR(hpcd->Instance, PCD_ENDP0);
 1185              		.loc 1 1731 0
 1186 0036 0388     		ldrh	r3, [r0]
 1187              	.LVL120:
 1188 0038 23F07003 		bic	r3, r3, #112
 1189 003c 1B05     		lsls	r3, r3, #20
 1190 003e 1B0D     		lsrs	r3, r3, #20
 1191              	.LVL121:
 1192 0040 43F08003 		orr	r3, r3, #128
 1193              	.LVL122:
 1194 0044 0380     		strh	r3, [r0]	@ movhi
 1195              	.LBE2:
1732:Drivers/STM32G4xx_HAL_Driver/Src/stm32g4xx_hal_pcd.c **** 
1733:Drivers/STM32G4xx_HAL_Driver/Src/stm32g4xx_hal_pcd.c ****           /* Get Control Data OUT Packet */
1734:Drivers/STM32G4xx_HAL_Driver/Src/stm32g4xx_hal_pcd.c ****           ep->xfer_count = PCD_GET_EP_RX_CNT(hpcd->Instance, ep->num);
 1196              		.loc 1 1734 0
 1197 0046 2068     		ldr	r0, [r4]
 1198 0048 B0F85030 		ldrh	r3, [r0, #80]
 1199 004c 94F82821 		ldrb	r2, [r4, #296]	@ zero_extendqisi2
 1200 0050 03EBC203 		add	r3, r3, r2, lsl #3
 1201 0054 0344     		add	r3, r3, r0
 1202 0056 B3F80634 		ldrh	r3, [r3, #1030]
 1203 005a C3F30903 		ubfx	r3, r3, #0, #10
 1204 005e C4F84431 		str	r3, [r4, #324]
1735:Drivers/STM32G4xx_HAL_Driver/Src/stm32g4xx_hal_pcd.c **** 
1736:Drivers/STM32G4xx_HAL_Driver/Src/stm32g4xx_hal_pcd.c ****           if ((ep->xfer_count != 0U) && (ep->xfer_buff != 0U))
 1205              		.loc 1 1736 0
 1206 0062 8BB1     		cbz	r3, .L105
 1207              		.loc 1 1736 0 is_stmt 0 discriminator 1
 1208 0064 D4F83C11 		ldr	r1, [r4, #316]
 1209 0068 71B1     		cbz	r1, .L105
1737:Drivers/STM32G4xx_HAL_Driver/Src/stm32g4xx_hal_pcd.c ****           {
1738:Drivers/STM32G4xx_HAL_Driver/Src/stm32g4xx_hal_pcd.c ****             USB_ReadPMA(hpcd->Instance, ep->xfer_buff,
 1210              		.loc 1 1738 0 is_stmt 1
 1211 006a B4F82E21 		ldrh	r2, [r4, #302]
ARM GAS  /var/folders/17/j_dgbcc52q10y0jc3c_zbwd80000gn/T//cc40SoIA.s 			page 53


 1212 006e FFF7FEFF 		bl	USB_ReadPMA
 1213              	.LVL123:
1739:Drivers/STM32G4xx_HAL_Driver/Src/stm32g4xx_hal_pcd.c ****                         ep->pmaadress, (uint16_t)ep->xfer_count);
1740:Drivers/STM32G4xx_HAL_Driver/Src/stm32g4xx_hal_pcd.c **** 
1741:Drivers/STM32G4xx_HAL_Driver/Src/stm32g4xx_hal_pcd.c ****             ep->xfer_buff += ep->xfer_count;
 1214              		.loc 1 1741 0
 1215 0072 D4F84421 		ldr	r2, [r4, #324]
 1216 0076 D4F83C31 		ldr	r3, [r4, #316]
 1217 007a 1344     		add	r3, r3, r2
 1218 007c C4F83C31 		str	r3, [r4, #316]
1742:Drivers/STM32G4xx_HAL_Driver/Src/stm32g4xx_hal_pcd.c **** 
1743:Drivers/STM32G4xx_HAL_Driver/Src/stm32g4xx_hal_pcd.c ****             /* Process Control Data OUT Packet */
1744:Drivers/STM32G4xx_HAL_Driver/Src/stm32g4xx_hal_pcd.c **** #if (USE_HAL_PCD_REGISTER_CALLBACKS == 1U)
1745:Drivers/STM32G4xx_HAL_Driver/Src/stm32g4xx_hal_pcd.c ****             hpcd->DataOutStageCallback(hpcd, 0U);
1746:Drivers/STM32G4xx_HAL_Driver/Src/stm32g4xx_hal_pcd.c **** #else
1747:Drivers/STM32G4xx_HAL_Driver/Src/stm32g4xx_hal_pcd.c ****             HAL_PCD_DataOutStageCallback(hpcd, 0U);
 1219              		.loc 1 1747 0
 1220 0080 0021     		movs	r1, #0
 1221 0082 2046     		mov	r0, r4
 1222 0084 FFF7FEFF 		bl	HAL_PCD_DataOutStageCallback
 1223              	.LVL124:
 1224              	.L105:
 1225              	.LBB3:
1748:Drivers/STM32G4xx_HAL_Driver/Src/stm32g4xx_hal_pcd.c **** #endif /* USE_HAL_PCD_REGISTER_CALLBACKS */
1749:Drivers/STM32G4xx_HAL_Driver/Src/stm32g4xx_hal_pcd.c ****           }
1750:Drivers/STM32G4xx_HAL_Driver/Src/stm32g4xx_hal_pcd.c **** 
1751:Drivers/STM32G4xx_HAL_Driver/Src/stm32g4xx_hal_pcd.c ****           PCD_SET_EP_RX_CNT(hpcd->Instance, PCD_ENDP0, ep->maxpacket);
 1226              		.loc 1 1751 0
 1227 0088 2368     		ldr	r3, [r4]
 1228              	.LVL125:
 1229 008a B3F85020 		ldrh	r2, [r3, #80]
 1230 008e 1344     		add	r3, r3, r2
 1231              	.LVL126:
 1232              	.LBB4:
 1233 0090 D4F83821 		ldr	r2, [r4, #312]
 1234 0094 002A     		cmp	r2, #0
 1235 0096 6AD1     		bne	.L106
 1236              		.loc 1 1751 0 is_stmt 0 discriminator 1
 1237 0098 B3F80624 		ldrh	r2, [r3, #1030]
 1238 009c 92B2     		uxth	r2, r2
 1239 009e 22F4F842 		bic	r2, r2, #31744
 1240 00a2 92B2     		uxth	r2, r2
 1241 00a4 A3F80624 		strh	r2, [r3, #1030]	@ movhi
 1242 00a8 B3F80624 		ldrh	r2, [r3, #1030]
 1243 00ac 42F40042 		orr	r2, r2, #32768
 1244 00b0 A3F80624 		strh	r2, [r3, #1030]	@ movhi
 1245              	.L107:
 1246              	.LBE4:
 1247              	.LBE3:
 1248              	.LBB6:
1752:Drivers/STM32G4xx_HAL_Driver/Src/stm32g4xx_hal_pcd.c ****           PCD_SET_EP_RX_STATUS(hpcd->Instance, PCD_ENDP0, USB_EP_RX_VALID);
 1249              		.loc 1 1752 0 is_stmt 1
 1250 00b4 2168     		ldr	r1, [r4]
 1251 00b6 0B88     		ldrh	r3, [r1]
 1252              	.LVL127:
 1253 00b8 23F48043 		bic	r3, r3, #16384
 1254 00bc 23F07003 		bic	r3, r3, #112
ARM GAS  /var/folders/17/j_dgbcc52q10y0jc3c_zbwd80000gn/T//cc40SoIA.s 			page 54


 1255              	.LVL128:
 1256 00c0 83F44053 		eor	r3, r3, #12288
 1257              	.LVL129:
 1258 00c4 48F28002 		movw	r2, #32896
 1259 00c8 1A43     		orrs	r2, r2, r3
 1260 00ca 0A80     		strh	r2, [r1]	@ movhi
 1261 00cc 9AE7     		b	.L100
 1262              	.LVL130:
 1263              	.L121:
 1264              	.LBE6:
 1265              	.LBB7:
1682:Drivers/STM32G4xx_HAL_Driver/Src/stm32g4xx_hal_pcd.c ****         ep = &hpcd->IN_ep[0];
 1266              		.loc 1 1682 0
 1267 00ce 0388     		ldrh	r3, [r0]
 1268              	.LVL131:
 1269 00d0 23F4E143 		bic	r3, r3, #28800
 1270 00d4 23F07003 		bic	r3, r3, #112
 1271              	.LVL132:
 1272 00d8 43F40043 		orr	r3, r3, #32768
 1273              	.LVL133:
 1274 00dc 0380     		strh	r3, [r0]	@ movhi
 1275              	.LVL134:
 1276              	.LBE7:
1685:Drivers/STM32G4xx_HAL_Driver/Src/stm32g4xx_hal_pcd.c ****         ep->xfer_buff += ep->xfer_count;
 1277              		.loc 1 1685 0
 1278 00de 2268     		ldr	r2, [r4]
 1279 00e0 B2F85030 		ldrh	r3, [r2, #80]
 1280 00e4 94F82810 		ldrb	r1, [r4, #40]	@ zero_extendqisi2
 1281 00e8 03EBC103 		add	r3, r3, r1, lsl #3
 1282 00ec 1344     		add	r3, r3, r2
 1283 00ee B3F80234 		ldrh	r3, [r3, #1026]
 1284 00f2 C3F30903 		ubfx	r3, r3, #0, #10
 1285 00f6 6364     		str	r3, [r4, #68]
1686:Drivers/STM32G4xx_HAL_Driver/Src/stm32g4xx_hal_pcd.c **** 
 1286              		.loc 1 1686 0
 1287 00f8 E26B     		ldr	r2, [r4, #60]
 1288 00fa 1344     		add	r3, r3, r2
 1289 00fc E363     		str	r3, [r4, #60]
1692:Drivers/STM32G4xx_HAL_Driver/Src/stm32g4xx_hal_pcd.c **** #endif /* USE_HAL_PCD_REGISTER_CALLBACKS */
 1290              		.loc 1 1692 0
 1291 00fe 0021     		movs	r1, #0
 1292 0100 2046     		mov	r0, r4
 1293 0102 FFF7FEFF 		bl	HAL_PCD_DataInStageCallback
 1294              	.LVL135:
1695:Drivers/STM32G4xx_HAL_Driver/Src/stm32g4xx_hal_pcd.c ****         {
 1295              		.loc 1 1695 0
 1296 0106 94F82430 		ldrb	r3, [r4, #36]	@ zero_extendqisi2
 1297 010a 002B     		cmp	r3, #0
 1298 010c 3FF47AAF 		beq	.L100
1695:Drivers/STM32G4xx_HAL_Driver/Src/stm32g4xx_hal_pcd.c ****         {
 1299              		.loc 1 1695 0 is_stmt 0 discriminator 1
 1300 0110 236C     		ldr	r3, [r4, #64]
 1301 0112 002B     		cmp	r3, #0
 1302 0114 7FF476AF 		bne	.L100
1697:Drivers/STM32G4xx_HAL_Driver/Src/stm32g4xx_hal_pcd.c ****           hpcd->USB_Address = 0U;
 1303              		.loc 1 1697 0 is_stmt 1
 1304 0118 94F82430 		ldrb	r3, [r4, #36]	@ zero_extendqisi2
ARM GAS  /var/folders/17/j_dgbcc52q10y0jc3c_zbwd80000gn/T//cc40SoIA.s 			page 55


 1305 011c 2268     		ldr	r2, [r4]
 1306 011e 43F08003 		orr	r3, r3, #128
 1307 0122 A2F84C30 		strh	r3, [r2, #76]	@ movhi
1698:Drivers/STM32G4xx_HAL_Driver/Src/stm32g4xx_hal_pcd.c ****         }
 1308              		.loc 1 1698 0
 1309 0126 0023     		movs	r3, #0
 1310 0128 84F82430 		strb	r3, [r4, #36]
 1311 012c 6AE7     		b	.L100
 1312              	.LVL136:
 1313              	.L122:
1713:Drivers/STM32G4xx_HAL_Driver/Src/stm32g4xx_hal_pcd.c **** 
 1314              		.loc 1 1713 0
 1315 012e B0F85030 		ldrh	r3, [r0, #80]
 1316              	.LVL137:
 1317 0132 94F82821 		ldrb	r2, [r4, #296]	@ zero_extendqisi2
 1318 0136 03EBC203 		add	r3, r3, r2, lsl #3
 1319 013a 0344     		add	r3, r3, r0
 1320 013c B3F80634 		ldrh	r3, [r3, #1030]
 1321 0140 C3F30903 		ubfx	r3, r3, #0, #10
 1322 0144 C4F84431 		str	r3, [r4, #324]
1715:Drivers/STM32G4xx_HAL_Driver/Src/stm32g4xx_hal_pcd.c ****                       ep->pmaadress, (uint16_t)ep->xfer_count);
 1323              		.loc 1 1715 0
 1324 0148 B4F82E21 		ldrh	r2, [r4, #302]
 1325 014c 04F50C71 		add	r1, r4, #560
 1326 0150 FFF7FEFF 		bl	USB_ReadPMA
 1327              	.LVL138:
 1328              	.LBB8:
1719:Drivers/STM32G4xx_HAL_Driver/Src/stm32g4xx_hal_pcd.c **** 
 1329              		.loc 1 1719 0
 1330 0154 2268     		ldr	r2, [r4]
 1331 0156 1388     		ldrh	r3, [r2]
 1332 0158 23F07003 		bic	r3, r3, #112
 1333 015c 1B05     		lsls	r3, r3, #20
 1334 015e 1B0D     		lsrs	r3, r3, #20
 1335              	.LVL139:
 1336 0160 43F08003 		orr	r3, r3, #128
 1337              	.LVL140:
 1338 0164 1380     		strh	r3, [r2]	@ movhi
 1339              	.LBE8:
1725:Drivers/STM32G4xx_HAL_Driver/Src/stm32g4xx_hal_pcd.c **** #endif /* USE_HAL_PCD_REGISTER_CALLBACKS */
 1340              		.loc 1 1725 0
 1341 0166 2046     		mov	r0, r4
 1342 0168 FFF7FEFF 		bl	HAL_PCD_SetupStageCallback
 1343              	.LVL141:
 1344 016c 4AE7     		b	.L100
 1345              	.LVL142:
 1346              	.L106:
 1347              	.LBB9:
 1348              	.LBB5:
1751:Drivers/STM32G4xx_HAL_Driver/Src/stm32g4xx_hal_pcd.c ****           PCD_SET_EP_RX_STATUS(hpcd->Instance, PCD_ENDP0, USB_EP_RX_VALID);
 1349              		.loc 1 1751 0 discriminator 2
 1350 016e 3E2A     		cmp	r2, #62
 1351 0170 09D8     		bhi	.L108
1751:Drivers/STM32G4xx_HAL_Driver/Src/stm32g4xx_hal_pcd.c ****           PCD_SET_EP_RX_STATUS(hpcd->Instance, PCD_ENDP0, USB_EP_RX_VALID);
 1352              		.loc 1 1751 0 is_stmt 0 discriminator 3
 1353 0172 5108     		lsrs	r1, r2, #1
 1354              	.LVL143:
ARM GAS  /var/folders/17/j_dgbcc52q10y0jc3c_zbwd80000gn/T//cc40SoIA.s 			page 56


 1355 0174 12F0010F 		tst	r2, #1
 1356 0178 00D0     		beq	.L109
1751:Drivers/STM32G4xx_HAL_Driver/Src/stm32g4xx_hal_pcd.c ****           PCD_SET_EP_RX_STATUS(hpcd->Instance, PCD_ENDP0, USB_EP_RX_VALID);
 1357              		.loc 1 1751 0 discriminator 5
 1358 017a 0131     		adds	r1, r1, #1
 1359              	.LVL144:
 1360              	.L109:
1751:Drivers/STM32G4xx_HAL_Driver/Src/stm32g4xx_hal_pcd.c ****           PCD_SET_EP_RX_STATUS(hpcd->Instance, PCD_ENDP0, USB_EP_RX_VALID);
 1361              		.loc 1 1751 0 discriminator 7
 1362 017c 8902     		lsls	r1, r1, #10
 1363              	.LVL145:
 1364 017e 89B2     		uxth	r1, r1
 1365 0180 A3F80614 		strh	r1, [r3, #1030]	@ movhi
 1366 0184 96E7     		b	.L107
 1367              	.L108:
1751:Drivers/STM32G4xx_HAL_Driver/Src/stm32g4xx_hal_pcd.c ****           PCD_SET_EP_RX_STATUS(hpcd->Instance, PCD_ENDP0, USB_EP_RX_VALID);
 1368              		.loc 1 1751 0 discriminator 4
 1369 0186 5109     		lsrs	r1, r2, #5
 1370              	.LVL146:
 1371 0188 12F01F0F 		tst	r2, #31
 1372 018c 00D1     		bne	.L110
1751:Drivers/STM32G4xx_HAL_Driver/Src/stm32g4xx_hal_pcd.c ****           PCD_SET_EP_RX_STATUS(hpcd->Instance, PCD_ENDP0, USB_EP_RX_VALID);
 1373              		.loc 1 1751 0 discriminator 8
 1374 018e 0139     		subs	r1, r1, #1
 1375              	.LVL147:
 1376              	.L110:
1751:Drivers/STM32G4xx_HAL_Driver/Src/stm32g4xx_hal_pcd.c ****           PCD_SET_EP_RX_STATUS(hpcd->Instance, PCD_ENDP0, USB_EP_RX_VALID);
 1377              		.loc 1 1751 0 discriminator 10
 1378 0190 8A02     		lsls	r2, r1, #10
 1379 0192 92B2     		uxth	r2, r2
 1380 0194 42F40042 		orr	r2, r2, #32768
 1381 0198 A3F80624 		strh	r2, [r3, #1030]	@ movhi
 1382 019c 8AE7     		b	.L107
 1383              	.LVL148:
 1384              	.L101:
 1385              	.LBE5:
 1386              	.LBE9:
1753:Drivers/STM32G4xx_HAL_Driver/Src/stm32g4xx_hal_pcd.c ****         }
1754:Drivers/STM32G4xx_HAL_Driver/Src/stm32g4xx_hal_pcd.c ****       }
1755:Drivers/STM32G4xx_HAL_Driver/Src/stm32g4xx_hal_pcd.c ****     }
1756:Drivers/STM32G4xx_HAL_Driver/Src/stm32g4xx_hal_pcd.c ****     else
1757:Drivers/STM32G4xx_HAL_Driver/Src/stm32g4xx_hal_pcd.c ****     {
1758:Drivers/STM32G4xx_HAL_Driver/Src/stm32g4xx_hal_pcd.c ****       /* Decode and service non control endpoints interrupt */
1759:Drivers/STM32G4xx_HAL_Driver/Src/stm32g4xx_hal_pcd.c **** 
1760:Drivers/STM32G4xx_HAL_Driver/Src/stm32g4xx_hal_pcd.c ****       /* process related endpoint register */
1761:Drivers/STM32G4xx_HAL_Driver/Src/stm32g4xx_hal_pcd.c ****       wEPVal = PCD_GET_ENDPOINT(hpcd->Instance, epindex);
 1387              		.loc 1 1761 0 is_stmt 1
 1388 019e 30F82560 		ldrh	r6, [r0, r5, lsl #2]
 1389 01a2 B6B2     		uxth	r6, r6
 1390              	.LVL149:
1762:Drivers/STM32G4xx_HAL_Driver/Src/stm32g4xx_hal_pcd.c ****       if ((wEPVal & USB_EP_CTR_RX) != 0U)
 1391              		.loc 1 1762 0
 1392 01a4 16F4004F 		tst	r6, #32768
 1393 01a8 2DD1     		bne	.L123
 1394              	.LVL150:
 1395              	.L111:
1763:Drivers/STM32G4xx_HAL_Driver/Src/stm32g4xx_hal_pcd.c ****       {
ARM GAS  /var/folders/17/j_dgbcc52q10y0jc3c_zbwd80000gn/T//cc40SoIA.s 			page 57


1764:Drivers/STM32G4xx_HAL_Driver/Src/stm32g4xx_hal_pcd.c ****         /* clear int flag */
1765:Drivers/STM32G4xx_HAL_Driver/Src/stm32g4xx_hal_pcd.c ****         PCD_CLEAR_RX_EP_CTR(hpcd->Instance, epindex);
1766:Drivers/STM32G4xx_HAL_Driver/Src/stm32g4xx_hal_pcd.c ****         ep = &hpcd->OUT_ep[epindex];
1767:Drivers/STM32G4xx_HAL_Driver/Src/stm32g4xx_hal_pcd.c **** 
1768:Drivers/STM32G4xx_HAL_Driver/Src/stm32g4xx_hal_pcd.c ****         /* OUT double Buffering */
1769:Drivers/STM32G4xx_HAL_Driver/Src/stm32g4xx_hal_pcd.c ****         if (ep->doublebuffer == 0U)
1770:Drivers/STM32G4xx_HAL_Driver/Src/stm32g4xx_hal_pcd.c ****         {
1771:Drivers/STM32G4xx_HAL_Driver/Src/stm32g4xx_hal_pcd.c ****           count = (uint16_t)PCD_GET_EP_RX_CNT(hpcd->Instance, ep->num);
1772:Drivers/STM32G4xx_HAL_Driver/Src/stm32g4xx_hal_pcd.c ****           if (count != 0U)
1773:Drivers/STM32G4xx_HAL_Driver/Src/stm32g4xx_hal_pcd.c ****           {
1774:Drivers/STM32G4xx_HAL_Driver/Src/stm32g4xx_hal_pcd.c ****             USB_ReadPMA(hpcd->Instance, ep->xfer_buff, ep->pmaadress, count);
1775:Drivers/STM32G4xx_HAL_Driver/Src/stm32g4xx_hal_pcd.c ****           }
1776:Drivers/STM32G4xx_HAL_Driver/Src/stm32g4xx_hal_pcd.c ****         }
1777:Drivers/STM32G4xx_HAL_Driver/Src/stm32g4xx_hal_pcd.c ****         else
1778:Drivers/STM32G4xx_HAL_Driver/Src/stm32g4xx_hal_pcd.c ****         {
1779:Drivers/STM32G4xx_HAL_Driver/Src/stm32g4xx_hal_pcd.c ****           /* free EP OUT Buffer */
1780:Drivers/STM32G4xx_HAL_Driver/Src/stm32g4xx_hal_pcd.c ****           PCD_FreeUserBuffer(hpcd->Instance, ep->num, 0U);
1781:Drivers/STM32G4xx_HAL_Driver/Src/stm32g4xx_hal_pcd.c **** 
1782:Drivers/STM32G4xx_HAL_Driver/Src/stm32g4xx_hal_pcd.c ****           if ((PCD_GET_ENDPOINT(hpcd->Instance, ep->num) & USB_EP_DTOG_RX) != 0U)
1783:Drivers/STM32G4xx_HAL_Driver/Src/stm32g4xx_hal_pcd.c ****           {
1784:Drivers/STM32G4xx_HAL_Driver/Src/stm32g4xx_hal_pcd.c ****             /* read from endpoint BUF0Addr buffer */
1785:Drivers/STM32G4xx_HAL_Driver/Src/stm32g4xx_hal_pcd.c ****             count = (uint16_t)PCD_GET_EP_DBUF0_CNT(hpcd->Instance, ep->num);
1786:Drivers/STM32G4xx_HAL_Driver/Src/stm32g4xx_hal_pcd.c ****             if (count != 0U)
1787:Drivers/STM32G4xx_HAL_Driver/Src/stm32g4xx_hal_pcd.c ****             {
1788:Drivers/STM32G4xx_HAL_Driver/Src/stm32g4xx_hal_pcd.c ****               USB_ReadPMA(hpcd->Instance, ep->xfer_buff, ep->pmaaddr0, count);
1789:Drivers/STM32G4xx_HAL_Driver/Src/stm32g4xx_hal_pcd.c ****             }
1790:Drivers/STM32G4xx_HAL_Driver/Src/stm32g4xx_hal_pcd.c ****           }
1791:Drivers/STM32G4xx_HAL_Driver/Src/stm32g4xx_hal_pcd.c ****           else
1792:Drivers/STM32G4xx_HAL_Driver/Src/stm32g4xx_hal_pcd.c ****           {
1793:Drivers/STM32G4xx_HAL_Driver/Src/stm32g4xx_hal_pcd.c ****             /* read from endpoint BUF1Addr buffer */
1794:Drivers/STM32G4xx_HAL_Driver/Src/stm32g4xx_hal_pcd.c ****             count = (uint16_t)PCD_GET_EP_DBUF1_CNT(hpcd->Instance, ep->num);
1795:Drivers/STM32G4xx_HAL_Driver/Src/stm32g4xx_hal_pcd.c ****             if (count != 0U)
1796:Drivers/STM32G4xx_HAL_Driver/Src/stm32g4xx_hal_pcd.c ****             {
1797:Drivers/STM32G4xx_HAL_Driver/Src/stm32g4xx_hal_pcd.c ****               USB_ReadPMA(hpcd->Instance, ep->xfer_buff, ep->pmaaddr1, count);
1798:Drivers/STM32G4xx_HAL_Driver/Src/stm32g4xx_hal_pcd.c ****             }
1799:Drivers/STM32G4xx_HAL_Driver/Src/stm32g4xx_hal_pcd.c ****           }
1800:Drivers/STM32G4xx_HAL_Driver/Src/stm32g4xx_hal_pcd.c ****         }
1801:Drivers/STM32G4xx_HAL_Driver/Src/stm32g4xx_hal_pcd.c ****         /* multi-packet on the NON control OUT endpoint */
1802:Drivers/STM32G4xx_HAL_Driver/Src/stm32g4xx_hal_pcd.c ****         ep->xfer_count += count;
1803:Drivers/STM32G4xx_HAL_Driver/Src/stm32g4xx_hal_pcd.c ****         ep->xfer_buff += count;
1804:Drivers/STM32G4xx_HAL_Driver/Src/stm32g4xx_hal_pcd.c **** 
1805:Drivers/STM32G4xx_HAL_Driver/Src/stm32g4xx_hal_pcd.c ****         if ((ep->xfer_len == 0U) || (count < ep->maxpacket))
1806:Drivers/STM32G4xx_HAL_Driver/Src/stm32g4xx_hal_pcd.c ****         {
1807:Drivers/STM32G4xx_HAL_Driver/Src/stm32g4xx_hal_pcd.c ****           /* RX COMPLETE */
1808:Drivers/STM32G4xx_HAL_Driver/Src/stm32g4xx_hal_pcd.c **** #if (USE_HAL_PCD_REGISTER_CALLBACKS == 1U)
1809:Drivers/STM32G4xx_HAL_Driver/Src/stm32g4xx_hal_pcd.c ****           hpcd->DataOutStageCallback(hpcd, ep->num);
1810:Drivers/STM32G4xx_HAL_Driver/Src/stm32g4xx_hal_pcd.c **** #else
1811:Drivers/STM32G4xx_HAL_Driver/Src/stm32g4xx_hal_pcd.c ****           HAL_PCD_DataOutStageCallback(hpcd, ep->num);
1812:Drivers/STM32G4xx_HAL_Driver/Src/stm32g4xx_hal_pcd.c **** #endif /* USE_HAL_PCD_REGISTER_CALLBACKS */
1813:Drivers/STM32G4xx_HAL_Driver/Src/stm32g4xx_hal_pcd.c ****         }
1814:Drivers/STM32G4xx_HAL_Driver/Src/stm32g4xx_hal_pcd.c ****         else
1815:Drivers/STM32G4xx_HAL_Driver/Src/stm32g4xx_hal_pcd.c ****         {
1816:Drivers/STM32G4xx_HAL_Driver/Src/stm32g4xx_hal_pcd.c ****           (void)HAL_PCD_EP_Receive(hpcd, ep->num, ep->xfer_buff, ep->xfer_len);
1817:Drivers/STM32G4xx_HAL_Driver/Src/stm32g4xx_hal_pcd.c ****         }
1818:Drivers/STM32G4xx_HAL_Driver/Src/stm32g4xx_hal_pcd.c **** 
1819:Drivers/STM32G4xx_HAL_Driver/Src/stm32g4xx_hal_pcd.c ****       } /* if((wEPVal & EP_CTR_RX) */
1820:Drivers/STM32G4xx_HAL_Driver/Src/stm32g4xx_hal_pcd.c **** 
ARM GAS  /var/folders/17/j_dgbcc52q10y0jc3c_zbwd80000gn/T//cc40SoIA.s 			page 58


1821:Drivers/STM32G4xx_HAL_Driver/Src/stm32g4xx_hal_pcd.c ****       if ((wEPVal & USB_EP_CTR_TX) != 0U)
 1396              		.loc 1 1821 0
 1397 01aa 16F0800F 		tst	r6, #128
 1398 01ae 3FF429AF 		beq	.L100
 1399              	.LVL151:
 1400              	.LBB10:
1822:Drivers/STM32G4xx_HAL_Driver/Src/stm32g4xx_hal_pcd.c ****       {
1823:Drivers/STM32G4xx_HAL_Driver/Src/stm32g4xx_hal_pcd.c ****         ep = &hpcd->IN_ep[epindex];
1824:Drivers/STM32G4xx_HAL_Driver/Src/stm32g4xx_hal_pcd.c **** 
1825:Drivers/STM32G4xx_HAL_Driver/Src/stm32g4xx_hal_pcd.c ****         /* clear int flag */
1826:Drivers/STM32G4xx_HAL_Driver/Src/stm32g4xx_hal_pcd.c ****         PCD_CLEAR_TX_EP_CTR(hpcd->Instance, epindex);
 1401              		.loc 1 1826 0
 1402 01b2 2268     		ldr	r2, [r4]
 1403 01b4 32F82530 		ldrh	r3, [r2, r5, lsl #2]
 1404 01b8 23F4E143 		bic	r3, r3, #28800
 1405 01bc 23F07003 		bic	r3, r3, #112
 1406              	.LVL152:
 1407 01c0 43F40043 		orr	r3, r3, #32768
 1408              	.LVL153:
 1409 01c4 22F82530 		strh	r3, [r2, r5, lsl #2]	@ movhi
 1410              	.LBE10:
1827:Drivers/STM32G4xx_HAL_Driver/Src/stm32g4xx_hal_pcd.c **** 
1828:Drivers/STM32G4xx_HAL_Driver/Src/stm32g4xx_hal_pcd.c ****         /* multi-packet on the NON control IN endpoint */
1829:Drivers/STM32G4xx_HAL_Driver/Src/stm32g4xx_hal_pcd.c ****         ep->xfer_count = PCD_GET_EP_TX_CNT(hpcd->Instance, ep->num);
 1411              		.loc 1 1829 0
 1412 01c8 2268     		ldr	r2, [r4]
 1413 01ca B2F85030 		ldrh	r3, [r2, #80]
 1414 01ce 04EB4510 		add	r0, r4, r5, lsl #5
 1415 01d2 90F82810 		ldrb	r1, [r0, #40]	@ zero_extendqisi2
 1416 01d6 03EBC103 		add	r3, r3, r1, lsl #3
 1417 01da 1344     		add	r3, r3, r2
 1418 01dc B3F80224 		ldrh	r2, [r3, #1026]
 1419 01e0 C2F30902 		ubfx	r2, r2, #0, #10
 1420 01e4 AB1C     		adds	r3, r5, #2
 1421 01e6 5B01     		lsls	r3, r3, #5
 1422 01e8 E118     		adds	r1, r4, r3
 1423 01ea 4A60     		str	r2, [r1, #4]
1830:Drivers/STM32G4xx_HAL_Driver/Src/stm32g4xx_hal_pcd.c ****         ep->xfer_buff += ep->xfer_count;
 1424              		.loc 1 1830 0
 1425 01ec C16B     		ldr	r1, [r0, #60]
 1426 01ee 0A44     		add	r2, r2, r1
 1427 01f0 C263     		str	r2, [r0, #60]
1831:Drivers/STM32G4xx_HAL_Driver/Src/stm32g4xx_hal_pcd.c **** 
1832:Drivers/STM32G4xx_HAL_Driver/Src/stm32g4xx_hal_pcd.c ****         /* Zero Length Packet? */
1833:Drivers/STM32G4xx_HAL_Driver/Src/stm32g4xx_hal_pcd.c ****         if (ep->xfer_len == 0U)
 1428              		.loc 1 1833 0
 1429 01f2 E358     		ldr	r3, [r4, r3]
 1430 01f4 002B     		cmp	r3, #0
 1431 01f6 40F09280 		bne	.L117
1834:Drivers/STM32G4xx_HAL_Driver/Src/stm32g4xx_hal_pcd.c ****         {
1835:Drivers/STM32G4xx_HAL_Driver/Src/stm32g4xx_hal_pcd.c ****           /* TX COMPLETE */
1836:Drivers/STM32G4xx_HAL_Driver/Src/stm32g4xx_hal_pcd.c **** #if (USE_HAL_PCD_REGISTER_CALLBACKS == 1U)
1837:Drivers/STM32G4xx_HAL_Driver/Src/stm32g4xx_hal_pcd.c ****           hpcd->DataInStageCallback(hpcd, ep->num);
1838:Drivers/STM32G4xx_HAL_Driver/Src/stm32g4xx_hal_pcd.c **** #else
1839:Drivers/STM32G4xx_HAL_Driver/Src/stm32g4xx_hal_pcd.c ****           HAL_PCD_DataInStageCallback(hpcd, ep->num);
 1432              		.loc 1 1839 0
 1433 01fa 90F82810 		ldrb	r1, [r0, #40]	@ zero_extendqisi2
ARM GAS  /var/folders/17/j_dgbcc52q10y0jc3c_zbwd80000gn/T//cc40SoIA.s 			page 59


 1434 01fe 2046     		mov	r0, r4
 1435 0200 FFF7FEFF 		bl	HAL_PCD_DataInStageCallback
 1436              	.LVL154:
 1437 0204 FEE6     		b	.L100
 1438              	.LVL155:
 1439              	.L123:
 1440              	.LBB11:
1765:Drivers/STM32G4xx_HAL_Driver/Src/stm32g4xx_hal_pcd.c ****         ep = &hpcd->OUT_ep[epindex];
 1441              		.loc 1 1765 0
 1442 0206 30F82530 		ldrh	r3, [r0, r5, lsl #2]
 1443              	.LVL156:
 1444 020a 23F07003 		bic	r3, r3, #112
 1445 020e 1B05     		lsls	r3, r3, #20
 1446 0210 1B0D     		lsrs	r3, r3, #20
 1447              	.LVL157:
 1448 0212 43F08003 		orr	r3, r3, #128
 1449              	.LVL158:
 1450 0216 20F82530 		strh	r3, [r0, r5, lsl #2]	@ movhi
 1451              	.LVL159:
 1452              	.LBE11:
1769:Drivers/STM32G4xx_HAL_Driver/Src/stm32g4xx_hal_pcd.c ****         {
 1453              		.loc 1 1769 0
 1454 021a 04EB4513 		add	r3, r4, r5, lsl #5
 1455 021e 93F83431 		ldrb	r3, [r3, #308]	@ zero_extendqisi2
 1456 0222 A3BB     		cbnz	r3, .L112
1771:Drivers/STM32G4xx_HAL_Driver/Src/stm32g4xx_hal_pcd.c ****           if (count != 0U)
 1457              		.loc 1 1771 0
 1458 0224 2068     		ldr	r0, [r4]
 1459 0226 B0F85030 		ldrh	r3, [r0, #80]
 1460 022a 04EB4512 		add	r2, r4, r5, lsl #5
 1461 022e 92F82821 		ldrb	r2, [r2, #296]	@ zero_extendqisi2
 1462 0232 03EBC203 		add	r3, r3, r2, lsl #3
 1463 0236 0344     		add	r3, r3, r0
 1464 0238 B3F80674 		ldrh	r7, [r3, #1030]
 1465 023c C7F30907 		ubfx	r7, r7, #0, #10
 1466              	.LVL160:
1772:Drivers/STM32G4xx_HAL_Driver/Src/stm32g4xx_hal_pcd.c ****           {
 1467              		.loc 1 1772 0
 1468 0240 DFB9     		cbnz	r7, .L124
 1469              	.L113:
1802:Drivers/STM32G4xx_HAL_Driver/Src/stm32g4xx_hal_pcd.c ****         ep->xfer_buff += count;
 1470              		.loc 1 1802 0
 1471 0242 05F10A03 		add	r3, r5, #10
 1472 0246 5B01     		lsls	r3, r3, #5
 1473 0248 E118     		adds	r1, r4, r3
 1474 024a 4A68     		ldr	r2, [r1, #4]
 1475 024c 3A44     		add	r2, r2, r7
 1476 024e 4A60     		str	r2, [r1, #4]
1803:Drivers/STM32G4xx_HAL_Driver/Src/stm32g4xx_hal_pcd.c **** 
 1477              		.loc 1 1803 0
 1478 0250 04EB4511 		add	r1, r4, r5, lsl #5
 1479 0254 D1F83C21 		ldr	r2, [r1, #316]
 1480 0258 3A44     		add	r2, r2, r7
 1481 025a C1F83C21 		str	r2, [r1, #316]
1805:Drivers/STM32G4xx_HAL_Driver/Src/stm32g4xx_hal_pcd.c ****         {
 1482              		.loc 1 1805 0
 1483 025e E358     		ldr	r3, [r4, r3]
ARM GAS  /var/folders/17/j_dgbcc52q10y0jc3c_zbwd80000gn/T//cc40SoIA.s 			page 60


 1484 0260 1BB1     		cbz	r3, .L115
1805:Drivers/STM32G4xx_HAL_Driver/Src/stm32g4xx_hal_pcd.c ****         {
 1485              		.loc 1 1805 0 is_stmt 0 discriminator 1
 1486 0262 D1F83811 		ldr	r1, [r1, #312]
 1487 0266 8F42     		cmp	r7, r1
 1488 0268 51D2     		bcs	.L116
 1489              	.L115:
1811:Drivers/STM32G4xx_HAL_Driver/Src/stm32g4xx_hal_pcd.c **** #endif /* USE_HAL_PCD_REGISTER_CALLBACKS */
 1490              		.loc 1 1811 0 is_stmt 1
 1491 026a 04EB4513 		add	r3, r4, r5, lsl #5
 1492 026e 93F82811 		ldrb	r1, [r3, #296]	@ zero_extendqisi2
 1493 0272 2046     		mov	r0, r4
 1494 0274 FFF7FEFF 		bl	HAL_PCD_DataOutStageCallback
 1495              	.LVL161:
 1496 0278 97E7     		b	.L111
 1497              	.L124:
1774:Drivers/STM32G4xx_HAL_Driver/Src/stm32g4xx_hal_pcd.c ****           }
 1498              		.loc 1 1774 0
 1499 027a 04EB4511 		add	r1, r4, r5, lsl #5
 1500 027e 3B46     		mov	r3, r7
 1501 0280 B1F82E21 		ldrh	r2, [r1, #302]
 1502 0284 D1F83C11 		ldr	r1, [r1, #316]
 1503 0288 FFF7FEFF 		bl	USB_ReadPMA
 1504              	.LVL162:
 1505 028c D9E7     		b	.L113
 1506              	.LVL163:
 1507              	.L112:
 1508              	.LBB12:
1780:Drivers/STM32G4xx_HAL_Driver/Src/stm32g4xx_hal_pcd.c **** 
 1509              		.loc 1 1780 0 discriminator 1
 1510 028e 2068     		ldr	r0, [r4]
 1511 0290 04EB4511 		add	r1, r4, r5, lsl #5
 1512 0294 91F82871 		ldrb	r7, [r1, #296]	@ zero_extendqisi2
 1513 0298 30F82720 		ldrh	r2, [r0, r7, lsl #2]
 1514 029c 22F4E042 		bic	r2, r2, #28672
 1515 02a0 22F07002 		bic	r2, r2, #112
 1516              	.LVL164:
 1517 02a4 48F2C003 		movw	r3, #32960
 1518 02a8 1343     		orrs	r3, r3, r2
 1519 02aa 20F82730 		strh	r3, [r0, r7, lsl #2]	@ movhi
 1520              	.LBE12:
1782:Drivers/STM32G4xx_HAL_Driver/Src/stm32g4xx_hal_pcd.c ****           {
 1521              		.loc 1 1782 0 discriminator 1
 1522 02ae 2068     		ldr	r0, [r4]
 1523 02b0 91F82821 		ldrb	r2, [r1, #296]	@ zero_extendqisi2
 1524              	.LVL165:
 1525 02b4 30F82230 		ldrh	r3, [r0, r2, lsl #2]
 1526 02b8 13F4804F 		tst	r3, #16384
 1527 02bc 12D0     		beq	.L114
1785:Drivers/STM32G4xx_HAL_Driver/Src/stm32g4xx_hal_pcd.c ****             if (count != 0U)
 1528              		.loc 1 1785 0
 1529 02be B0F85030 		ldrh	r3, [r0, #80]
 1530 02c2 03EBC203 		add	r3, r3, r2, lsl #3
 1531 02c6 0344     		add	r3, r3, r0
 1532 02c8 B3F80274 		ldrh	r7, [r3, #1026]
 1533 02cc C7F30907 		ubfx	r7, r7, #0, #10
 1534              	.LVL166:
ARM GAS  /var/folders/17/j_dgbcc52q10y0jc3c_zbwd80000gn/T//cc40SoIA.s 			page 61


1786:Drivers/STM32G4xx_HAL_Driver/Src/stm32g4xx_hal_pcd.c ****             {
 1535              		.loc 1 1786 0
 1536 02d0 002F     		cmp	r7, #0
 1537 02d2 B6D0     		beq	.L113
1788:Drivers/STM32G4xx_HAL_Driver/Src/stm32g4xx_hal_pcd.c ****             }
 1538              		.loc 1 1788 0
 1539 02d4 3B46     		mov	r3, r7
 1540 02d6 B1F83021 		ldrh	r2, [r1, #304]
 1541 02da D1F83C11 		ldr	r1, [r1, #316]
 1542 02de FFF7FEFF 		bl	USB_ReadPMA
 1543              	.LVL167:
 1544 02e2 AEE7     		b	.L113
 1545              	.LVL168:
 1546              	.L114:
1794:Drivers/STM32G4xx_HAL_Driver/Src/stm32g4xx_hal_pcd.c ****             if (count != 0U)
 1547              		.loc 1 1794 0
 1548 02e4 B0F85030 		ldrh	r3, [r0, #80]
 1549 02e8 03EBC203 		add	r3, r3, r2, lsl #3
 1550 02ec 0344     		add	r3, r3, r0
 1551 02ee B3F80674 		ldrh	r7, [r3, #1030]
 1552 02f2 C7F30907 		ubfx	r7, r7, #0, #10
 1553              	.LVL169:
1795:Drivers/STM32G4xx_HAL_Driver/Src/stm32g4xx_hal_pcd.c ****             {
 1554              		.loc 1 1795 0
 1555 02f6 002F     		cmp	r7, #0
 1556 02f8 A3D0     		beq	.L113
1797:Drivers/STM32G4xx_HAL_Driver/Src/stm32g4xx_hal_pcd.c ****             }
 1557              		.loc 1 1797 0
 1558 02fa 04EB4511 		add	r1, r4, r5, lsl #5
 1559 02fe 3B46     		mov	r3, r7
 1560 0300 B1F83221 		ldrh	r2, [r1, #306]
 1561 0304 D1F83C11 		ldr	r1, [r1, #316]
 1562 0308 FFF7FEFF 		bl	USB_ReadPMA
 1563              	.LVL170:
 1564 030c 99E7     		b	.L113
 1565              	.L116:
1816:Drivers/STM32G4xx_HAL_Driver/Src/stm32g4xx_hal_pcd.c ****         }
 1566              		.loc 1 1816 0
 1567 030e 04EB4511 		add	r1, r4, r5, lsl #5
 1568 0312 91F82811 		ldrb	r1, [r1, #296]	@ zero_extendqisi2
 1569 0316 2046     		mov	r0, r4
 1570 0318 FFF7FEFF 		bl	HAL_PCD_EP_Receive
 1571              	.LVL171:
 1572 031c 45E7     		b	.L111
 1573              	.LVL172:
 1574              	.L117:
1840:Drivers/STM32G4xx_HAL_Driver/Src/stm32g4xx_hal_pcd.c **** #endif /* USE_HAL_PCD_REGISTER_CALLBACKS */
1841:Drivers/STM32G4xx_HAL_Driver/Src/stm32g4xx_hal_pcd.c ****         }
1842:Drivers/STM32G4xx_HAL_Driver/Src/stm32g4xx_hal_pcd.c ****         else
1843:Drivers/STM32G4xx_HAL_Driver/Src/stm32g4xx_hal_pcd.c ****         {
1844:Drivers/STM32G4xx_HAL_Driver/Src/stm32g4xx_hal_pcd.c ****           (void)HAL_PCD_EP_Transmit(hpcd, ep->num, ep->xfer_buff, ep->xfer_len);
 1575              		.loc 1 1844 0
 1576 031e 04EB4515 		add	r5, r4, r5, lsl #5
 1577              	.LVL173:
 1578 0322 95F82810 		ldrb	r1, [r5, #40]	@ zero_extendqisi2
 1579 0326 2046     		mov	r0, r4
 1580 0328 FFF7FEFF 		bl	HAL_PCD_EP_Transmit
ARM GAS  /var/folders/17/j_dgbcc52q10y0jc3c_zbwd80000gn/T//cc40SoIA.s 			page 62


 1581              	.LVL174:
 1582 032c 6AE6     		b	.L100
 1583              	.LVL175:
 1584              	.L120:
1845:Drivers/STM32G4xx_HAL_Driver/Src/stm32g4xx_hal_pcd.c ****         }
1846:Drivers/STM32G4xx_HAL_Driver/Src/stm32g4xx_hal_pcd.c ****       }
1847:Drivers/STM32G4xx_HAL_Driver/Src/stm32g4xx_hal_pcd.c ****     }
1848:Drivers/STM32G4xx_HAL_Driver/Src/stm32g4xx_hal_pcd.c ****   }
1849:Drivers/STM32G4xx_HAL_Driver/Src/stm32g4xx_hal_pcd.c ****   return HAL_OK;
1850:Drivers/STM32G4xx_HAL_Driver/Src/stm32g4xx_hal_pcd.c **** }
 1585              		.loc 1 1850 0
 1586 032e 0020     		movs	r0, #0
 1587 0330 F8BD     		pop	{r3, r4, r5, r6, r7, pc}
 1588              		.cfi_endproc
 1589              	.LFE162:
 1591              		.section	.text.HAL_PCD_IRQHandler,"ax",%progbits
 1592              		.align	1
 1593              		.global	HAL_PCD_IRQHandler
 1594              		.syntax unified
 1595              		.thumb
 1596              		.thumb_func
 1597              		.fpu fpv5-sp-d16
 1599              	HAL_PCD_IRQHandler:
 1600              	.LFB136:
 995:Drivers/STM32G4xx_HAL_Driver/Src/stm32g4xx_hal_pcd.c ****   if (__HAL_PCD_GET_FLAG(hpcd, USB_ISTR_CTR))
 1601              		.loc 1 995 0
 1602              		.cfi_startproc
 1603              		@ args = 0, pretend = 0, frame = 0
 1604              		@ frame_needed = 0, uses_anonymous_args = 0
 1605              	.LVL176:
 1606 0000 10B5     		push	{r4, lr}
 1607              		.cfi_def_cfa_offset 8
 1608              		.cfi_offset 4, -8
 1609              		.cfi_offset 14, -4
 1610 0002 0446     		mov	r4, r0
 996:Drivers/STM32G4xx_HAL_Driver/Src/stm32g4xx_hal_pcd.c ****   {
 1611              		.loc 1 996 0
 1612 0004 0068     		ldr	r0, [r0]
 1613              	.LVL177:
 1614 0006 FFF7FEFF 		bl	USB_ReadInterrupts
 1615              	.LVL178:
 1616 000a 10F4004F 		tst	r0, #32768
 1617 000e 40F09880 		bne	.L138
 1618              	.L126:
1003:Drivers/STM32G4xx_HAL_Driver/Src/stm32g4xx_hal_pcd.c ****   {
 1619              		.loc 1 1003 0
 1620 0012 2068     		ldr	r0, [r4]
 1621 0014 FFF7FEFF 		bl	USB_ReadInterrupts
 1622              	.LVL179:
 1623 0018 10F4806F 		tst	r0, #1024
 1624 001c 40F09580 		bne	.L139
 1625              	.L127:
1016:Drivers/STM32G4xx_HAL_Driver/Src/stm32g4xx_hal_pcd.c ****   {
 1626              		.loc 1 1016 0
 1627 0020 2068     		ldr	r0, [r4]
 1628 0022 FFF7FEFF 		bl	USB_ReadInterrupts
 1629              	.LVL180:
ARM GAS  /var/folders/17/j_dgbcc52q10y0jc3c_zbwd80000gn/T//cc40SoIA.s 			page 63


 1630 0026 10F4804F 		tst	r0, #16384
 1631 002a 08D0     		beq	.L128
1018:Drivers/STM32G4xx_HAL_Driver/Src/stm32g4xx_hal_pcd.c ****   }
 1632              		.loc 1 1018 0
 1633 002c 2268     		ldr	r2, [r4]
 1634 002e B2F84430 		ldrh	r3, [r2, #68]
 1635 0032 9BB2     		uxth	r3, r3
 1636 0034 23F48043 		bic	r3, r3, #16384
 1637 0038 9BB2     		uxth	r3, r3
 1638 003a A2F84430 		strh	r3, [r2, #68]	@ movhi
 1639              	.L128:
1021:Drivers/STM32G4xx_HAL_Driver/Src/stm32g4xx_hal_pcd.c ****   {
 1640              		.loc 1 1021 0
 1641 003e 2068     		ldr	r0, [r4]
 1642 0040 FFF7FEFF 		bl	USB_ReadInterrupts
 1643              	.LVL181:
 1644 0044 10F4005F 		tst	r0, #8192
 1645 0048 08D0     		beq	.L129
1023:Drivers/STM32G4xx_HAL_Driver/Src/stm32g4xx_hal_pcd.c ****   }
 1646              		.loc 1 1023 0
 1647 004a 2268     		ldr	r2, [r4]
 1648 004c B2F84430 		ldrh	r3, [r2, #68]
 1649 0050 9BB2     		uxth	r3, r3
 1650 0052 23F40053 		bic	r3, r3, #8192
 1651 0056 9BB2     		uxth	r3, r3
 1652 0058 A2F84430 		strh	r3, [r2, #68]	@ movhi
 1653              	.L129:
1026:Drivers/STM32G4xx_HAL_Driver/Src/stm32g4xx_hal_pcd.c ****   {
 1654              		.loc 1 1026 0
 1655 005c 2068     		ldr	r0, [r4]
 1656 005e FFF7FEFF 		bl	USB_ReadInterrupts
 1657              	.LVL182:
 1658 0062 10F4805F 		tst	r0, #4096
 1659 0066 21D0     		beq	.L130
1028:Drivers/STM32G4xx_HAL_Driver/Src/stm32g4xx_hal_pcd.c ****     hpcd->Instance->CNTR &= (uint16_t) ~(USB_CNTR_FSUSP);
 1660              		.loc 1 1028 0
 1661 0068 2268     		ldr	r2, [r4]
 1662 006a B2F84030 		ldrh	r3, [r2, #64]
 1663 006e 9BB2     		uxth	r3, r3
 1664 0070 23F00403 		bic	r3, r3, #4
 1665 0074 9BB2     		uxth	r3, r3
 1666 0076 A2F84030 		strh	r3, [r2, #64]	@ movhi
1029:Drivers/STM32G4xx_HAL_Driver/Src/stm32g4xx_hal_pcd.c **** 
 1667              		.loc 1 1029 0
 1668 007a 2268     		ldr	r2, [r4]
 1669 007c B2F84030 		ldrh	r3, [r2, #64]
 1670 0080 9BB2     		uxth	r3, r3
 1671 0082 23F00803 		bic	r3, r3, #8
 1672 0086 9BB2     		uxth	r3, r3
 1673 0088 A2F84030 		strh	r3, [r2, #64]	@ movhi
1031:Drivers/STM32G4xx_HAL_Driver/Src/stm32g4xx_hal_pcd.c ****     {
 1674              		.loc 1 1031 0
 1675 008c 94F86032 		ldrb	r3, [r4, #608]	@ zero_extendqisi2
 1676 0090 012B     		cmp	r3, #1
 1677 0092 6BD0     		beq	.L140
 1678              	.L131:
1044:Drivers/STM32G4xx_HAL_Driver/Src/stm32g4xx_hal_pcd.c **** #endif /* USE_HAL_PCD_REGISTER_CALLBACKS */
ARM GAS  /var/folders/17/j_dgbcc52q10y0jc3c_zbwd80000gn/T//cc40SoIA.s 			page 64


 1679              		.loc 1 1044 0
 1680 0094 2046     		mov	r0, r4
 1681 0096 FFF7FEFF 		bl	HAL_PCD_ResumeCallback
 1682              	.LVL183:
1047:Drivers/STM32G4xx_HAL_Driver/Src/stm32g4xx_hal_pcd.c ****   }
 1683              		.loc 1 1047 0
 1684 009a 2268     		ldr	r2, [r4]
 1685 009c B2F84430 		ldrh	r3, [r2, #68]
 1686 00a0 9BB2     		uxth	r3, r3
 1687 00a2 23F48053 		bic	r3, r3, #4096
 1688 00a6 9BB2     		uxth	r3, r3
 1689 00a8 A2F84430 		strh	r3, [r2, #68]	@ movhi
 1690              	.L130:
1050:Drivers/STM32G4xx_HAL_Driver/Src/stm32g4xx_hal_pcd.c ****   {
 1691              		.loc 1 1050 0
 1692 00ac 2068     		ldr	r0, [r4]
 1693 00ae FFF7FEFF 		bl	USB_ReadInterrupts
 1694              	.LVL184:
 1695 00b2 10F4006F 		tst	r0, #2048
 1696 00b6 60D1     		bne	.L141
 1697              	.L132:
1068:Drivers/STM32G4xx_HAL_Driver/Src/stm32g4xx_hal_pcd.c ****   {
 1698              		.loc 1 1068 0
 1699 00b8 2068     		ldr	r0, [r4]
 1700 00ba FFF7FEFF 		bl	USB_ReadInterrupts
 1701              	.LVL185:
 1702 00be 10F0800F 		tst	r0, #128
 1703 00c2 28D0     		beq	.L133
1070:Drivers/STM32G4xx_HAL_Driver/Src/stm32g4xx_hal_pcd.c ****     if (hpcd->LPM_State == LPM_L0)
 1704              		.loc 1 1070 0
 1705 00c4 2268     		ldr	r2, [r4]
 1706 00c6 B2F84430 		ldrh	r3, [r2, #68]
 1707 00ca 9BB2     		uxth	r3, r3
 1708 00cc 23F08003 		bic	r3, r3, #128
 1709 00d0 9BB2     		uxth	r3, r3
 1710 00d2 A2F84430 		strh	r3, [r2, #68]	@ movhi
1071:Drivers/STM32G4xx_HAL_Driver/Src/stm32g4xx_hal_pcd.c ****     {
 1711              		.loc 1 1071 0
 1712 00d6 94F86032 		ldrb	r3, [r4, #608]	@ zero_extendqisi2
 1713 00da 002B     		cmp	r3, #0
 1714 00dc 68D1     		bne	.L134
1074:Drivers/STM32G4xx_HAL_Driver/Src/stm32g4xx_hal_pcd.c ****       hpcd->Instance->CNTR |= (uint16_t)USB_CNTR_FSUSP;
 1715              		.loc 1 1074 0
 1716 00de 2268     		ldr	r2, [r4]
 1717 00e0 B2F84030 		ldrh	r3, [r2, #64]
 1718 00e4 43F00403 		orr	r3, r3, #4
 1719 00e8 A2F84030 		strh	r3, [r2, #64]	@ movhi
1075:Drivers/STM32G4xx_HAL_Driver/Src/stm32g4xx_hal_pcd.c **** 
 1720              		.loc 1 1075 0
 1721 00ec 2268     		ldr	r2, [r4]
 1722 00ee B2F84030 		ldrh	r3, [r2, #64]
 1723 00f2 43F00803 		orr	r3, r3, #8
 1724 00f6 A2F84030 		strh	r3, [r2, #64]	@ movhi
1077:Drivers/STM32G4xx_HAL_Driver/Src/stm32g4xx_hal_pcd.c ****       hpcd->BESL = ((uint32_t)hpcd->Instance->LPMCSR & USB_LPMCSR_BESL) >> 2;
 1725              		.loc 1 1077 0
 1726 00fa 0121     		movs	r1, #1
 1727 00fc 84F86012 		strb	r1, [r4, #608]
ARM GAS  /var/folders/17/j_dgbcc52q10y0jc3c_zbwd80000gn/T//cc40SoIA.s 			page 65


1078:Drivers/STM32G4xx_HAL_Driver/Src/stm32g4xx_hal_pcd.c **** #if (USE_HAL_PCD_REGISTER_CALLBACKS == 1U)
 1728              		.loc 1 1078 0
 1729 0100 2368     		ldr	r3, [r4]
 1730 0102 B3F85430 		ldrh	r3, [r3, #84]
 1731 0106 9B08     		lsrs	r3, r3, #2
 1732 0108 03F03C03 		and	r3, r3, #60
 1733 010c C4F86432 		str	r3, [r4, #612]
1082:Drivers/STM32G4xx_HAL_Driver/Src/stm32g4xx_hal_pcd.c **** #endif /* USE_HAL_PCD_REGISTER_CALLBACKS */
 1734              		.loc 1 1082 0
 1735 0110 2046     		mov	r0, r4
 1736 0112 FFF7FEFF 		bl	HAL_PCDEx_LPM_Callback
 1737              	.LVL186:
 1738              	.L133:
1095:Drivers/STM32G4xx_HAL_Driver/Src/stm32g4xx_hal_pcd.c ****   {
 1739              		.loc 1 1095 0
 1740 0116 2068     		ldr	r0, [r4]
 1741 0118 FFF7FEFF 		bl	USB_ReadInterrupts
 1742              	.LVL187:
 1743 011c 10F4007F 		tst	r0, #512
 1744 0120 4AD1     		bne	.L142
 1745              	.L135:
1106:Drivers/STM32G4xx_HAL_Driver/Src/stm32g4xx_hal_pcd.c ****   {
 1746              		.loc 1 1106 0
 1747 0122 2068     		ldr	r0, [r4]
 1748 0124 FFF7FEFF 		bl	USB_ReadInterrupts
 1749              	.LVL188:
 1750 0128 10F4807F 		tst	r0, #256
 1751 012c 08D0     		beq	.L125
1109:Drivers/STM32G4xx_HAL_Driver/Src/stm32g4xx_hal_pcd.c ****   }
 1752              		.loc 1 1109 0
 1753 012e 2268     		ldr	r2, [r4]
 1754 0130 B2F84430 		ldrh	r3, [r2, #68]
 1755 0134 9BB2     		uxth	r3, r3
 1756 0136 23F48073 		bic	r3, r3, #256
 1757 013a 9BB2     		uxth	r3, r3
 1758 013c A2F84430 		strh	r3, [r2, #68]	@ movhi
 1759              	.L125:
1111:Drivers/STM32G4xx_HAL_Driver/Src/stm32g4xx_hal_pcd.c **** 
 1760              		.loc 1 1111 0
 1761 0140 10BD     		pop	{r4, pc}
 1762              	.LVL189:
 1763              	.L138:
1000:Drivers/STM32G4xx_HAL_Driver/Src/stm32g4xx_hal_pcd.c ****   }
 1764              		.loc 1 1000 0
 1765 0142 2046     		mov	r0, r4
 1766 0144 FFF7FEFF 		bl	PCD_EP_ISR_Handler
 1767              	.LVL190:
 1768 0148 63E7     		b	.L126
 1769              	.L139:
1005:Drivers/STM32G4xx_HAL_Driver/Src/stm32g4xx_hal_pcd.c **** 
 1770              		.loc 1 1005 0
 1771 014a 2268     		ldr	r2, [r4]
 1772 014c B2F84430 		ldrh	r3, [r2, #68]
 1773 0150 9BB2     		uxth	r3, r3
 1774 0152 23F48063 		bic	r3, r3, #1024
 1775 0156 9BB2     		uxth	r3, r3
 1776 0158 A2F84430 		strh	r3, [r2, #68]	@ movhi
ARM GAS  /var/folders/17/j_dgbcc52q10y0jc3c_zbwd80000gn/T//cc40SoIA.s 			page 66


1010:Drivers/STM32G4xx_HAL_Driver/Src/stm32g4xx_hal_pcd.c **** #endif /* USE_HAL_PCD_REGISTER_CALLBACKS */
 1777              		.loc 1 1010 0
 1778 015c 2046     		mov	r0, r4
 1779 015e FFF7FEFF 		bl	HAL_PCD_ResetCallback
 1780              	.LVL191:
1013:Drivers/STM32G4xx_HAL_Driver/Src/stm32g4xx_hal_pcd.c ****   }
 1781              		.loc 1 1013 0
 1782 0162 0021     		movs	r1, #0
 1783 0164 2046     		mov	r0, r4
 1784 0166 FFF7FEFF 		bl	HAL_PCD_SetAddress
 1785              	.LVL192:
 1786 016a 59E7     		b	.L127
 1787              	.L140:
1033:Drivers/STM32G4xx_HAL_Driver/Src/stm32g4xx_hal_pcd.c **** #if (USE_HAL_PCD_REGISTER_CALLBACKS == 1U)
 1788              		.loc 1 1033 0
 1789 016c 0021     		movs	r1, #0
 1790 016e 84F86012 		strb	r1, [r4, #608]
1037:Drivers/STM32G4xx_HAL_Driver/Src/stm32g4xx_hal_pcd.c **** #endif /* USE_HAL_PCD_REGISTER_CALLBACKS */
 1791              		.loc 1 1037 0
 1792 0172 2046     		mov	r0, r4
 1793 0174 FFF7FEFF 		bl	HAL_PCDEx_LPM_Callback
 1794              	.LVL193:
 1795 0178 8CE7     		b	.L131
 1796              	.L141:
1053:Drivers/STM32G4xx_HAL_Driver/Src/stm32g4xx_hal_pcd.c **** 
 1797              		.loc 1 1053 0
 1798 017a 2268     		ldr	r2, [r4]
 1799 017c B2F84030 		ldrh	r3, [r2, #64]
 1800 0180 43F00803 		orr	r3, r3, #8
 1801 0184 A2F84030 		strh	r3, [r2, #64]	@ movhi
1056:Drivers/STM32G4xx_HAL_Driver/Src/stm32g4xx_hal_pcd.c **** 
 1802              		.loc 1 1056 0
 1803 0188 2268     		ldr	r2, [r4]
 1804 018a B2F84430 		ldrh	r3, [r2, #68]
 1805 018e 9BB2     		uxth	r3, r3
 1806 0190 23F40063 		bic	r3, r3, #2048
 1807 0194 9BB2     		uxth	r3, r3
 1808 0196 A2F84430 		strh	r3, [r2, #68]	@ movhi
1058:Drivers/STM32G4xx_HAL_Driver/Src/stm32g4xx_hal_pcd.c **** 
 1809              		.loc 1 1058 0
 1810 019a 2268     		ldr	r2, [r4]
 1811 019c B2F84030 		ldrh	r3, [r2, #64]
 1812 01a0 43F00403 		orr	r3, r3, #4
 1813 01a4 A2F84030 		strh	r3, [r2, #64]	@ movhi
1063:Drivers/STM32G4xx_HAL_Driver/Src/stm32g4xx_hal_pcd.c **** #endif /* USE_HAL_PCD_REGISTER_CALLBACKS */
 1814              		.loc 1 1063 0
 1815 01a8 2046     		mov	r0, r4
 1816 01aa FFF7FEFF 		bl	HAL_PCD_SuspendCallback
 1817              	.LVL194:
 1818 01ae 83E7     		b	.L132
 1819              	.L134:
1090:Drivers/STM32G4xx_HAL_Driver/Src/stm32g4xx_hal_pcd.c **** #endif /* USE_HAL_PCD_REGISTER_CALLBACKS */
 1820              		.loc 1 1090 0
 1821 01b0 2046     		mov	r0, r4
 1822 01b2 FFF7FEFF 		bl	HAL_PCD_SuspendCallback
 1823              	.LVL195:
 1824 01b6 AEE7     		b	.L133
ARM GAS  /var/folders/17/j_dgbcc52q10y0jc3c_zbwd80000gn/T//cc40SoIA.s 			page 67


 1825              	.L142:
1097:Drivers/STM32G4xx_HAL_Driver/Src/stm32g4xx_hal_pcd.c **** 
 1826              		.loc 1 1097 0
 1827 01b8 2268     		ldr	r2, [r4]
 1828 01ba B2F84430 		ldrh	r3, [r2, #68]
 1829 01be 9BB2     		uxth	r3, r3
 1830 01c0 23F40073 		bic	r3, r3, #512
 1831 01c4 9BB2     		uxth	r3, r3
 1832 01c6 A2F84430 		strh	r3, [r2, #68]	@ movhi
1102:Drivers/STM32G4xx_HAL_Driver/Src/stm32g4xx_hal_pcd.c **** #endif /* USE_HAL_PCD_REGISTER_CALLBACKS */
 1833              		.loc 1 1102 0
 1834 01ca 2046     		mov	r0, r4
 1835 01cc FFF7FEFF 		bl	HAL_PCD_SOFCallback
 1836              	.LVL196:
 1837 01d0 A7E7     		b	.L135
 1838              		.cfi_endproc
 1839              	.LFE136:
 1841              		.section	.text.HAL_PCD_EP_SetStall,"ax",%progbits
 1842              		.align	1
 1843              		.global	HAL_PCD_EP_SetStall
 1844              		.syntax unified
 1845              		.thumb
 1846              		.thumb_func
 1847              		.fpu fpv5-sp-d16
 1849              	HAL_PCD_EP_SetStall:
 1850              	.LFB156:
1503:Drivers/STM32G4xx_HAL_Driver/Src/stm32g4xx_hal_pcd.c ****   PCD_EPTypeDef *ep;
 1851              		.loc 1 1503 0
 1852              		.cfi_startproc
 1853              		@ args = 0, pretend = 0, frame = 0
 1854              		@ frame_needed = 0, uses_anonymous_args = 0
 1855              	.LVL197:
 1856 0000 38B5     		push	{r3, r4, r5, lr}
 1857              		.cfi_def_cfa_offset 16
 1858              		.cfi_offset 3, -16
 1859              		.cfi_offset 4, -12
 1860              		.cfi_offset 5, -8
 1861              		.cfi_offset 14, -4
 1862 0002 01F00705 		and	r5, r1, #7
1506:Drivers/STM32G4xx_HAL_Driver/Src/stm32g4xx_hal_pcd.c ****   {
 1863              		.loc 1 1506 0
 1864 0006 4368     		ldr	r3, [r0, #4]
 1865 0008 9D42     		cmp	r5, r3
 1866 000a 2CD8     		bhi	.L148
1511:Drivers/STM32G4xx_HAL_Driver/Src/stm32g4xx_hal_pcd.c ****   {
 1867              		.loc 1 1511 0
 1868 000c 11F0800F 		tst	r1, #128
 1869 0010 1AD1     		bne	.L151
1518:Drivers/STM32G4xx_HAL_Driver/Src/stm32g4xx_hal_pcd.c ****     ep->is_in = 0U;
 1870              		.loc 1 1518 0
 1871 0012 4B01     		lsls	r3, r1, #5
 1872 0014 03F59471 		add	r1, r3, #296
 1873              	.LVL198:
 1874 0018 0144     		add	r1, r1, r0
 1875              	.LVL199:
1519:Drivers/STM32G4xx_HAL_Driver/Src/stm32g4xx_hal_pcd.c ****   }
 1876              		.loc 1 1519 0
ARM GAS  /var/folders/17/j_dgbcc52q10y0jc3c_zbwd80000gn/T//cc40SoIA.s 			page 68


 1877 001a 0344     		add	r3, r3, r0
 1878 001c 0022     		movs	r2, #0
 1879 001e 83F82921 		strb	r2, [r3, #297]
 1880              	.L146:
1522:Drivers/STM32G4xx_HAL_Driver/Src/stm32g4xx_hal_pcd.c ****   ep->num = ep_addr & EP_ADDR_MSK;
 1881              		.loc 1 1522 0
 1882 0022 0123     		movs	r3, #1
 1883 0024 8B70     		strb	r3, [r1, #2]
